###############################################################################
#                                                                             #
# IAR C/C++ Compiler V7.51A/W32 for 8051                18/Aug/2012  09:33:31 #
# Copyright 2004-2009 IAR Systems AB.                                         #
#                                                                             #
#    Core               =  plain                                              #
#    Code model         =  banked                                             #
#    Data model         =  large                                              #
#    Calling convention =  xdata reentrant                                    #
#    Constant location  =  data_rom                                           #
#    Dptr setup         =  1,16                                               #
#    Source file        =  C:\Texas Instruments\ZStack-CC2530-2.3.0-1.4.0\Pro #
#                          jects\zstack\Samples\GenericApp\Source\Enddevice.c #
#    Command line       =  -f "C:\Texas Instruments\ZStack-CC2530-2.3.0-1.4.0 #
#                          \Projects\zstack\Samples\GenericApp\CC2530DB\..\.. #
#                          \..\Tools\CC2530DB\f8wRouter.cfg" (-DCPU32MHZ      #
#                          -DROOT=__near_func -DMAC_CFG_APP_PENDING_QUEUE=TRU #
#                          E -DRTR_NWK -DBLINK_LEDS) -f "C:\Texas             #
#                          Instruments\ZStack-CC2530-2.3.0-1.4.0\Projects\zst #
#                          ack\Samples\GenericApp\CC2530DB\..\..\..\Tools\CC2 #
#                          530DB\f8wConfig.cfg" (-DSECURE=0                   #
#                          -DZG_SECURE_DYNAMIC=0 -DREFLECTOR                  #
#                          -DDEFAULT_CHANLIST=0x00000800                      #
#                          -DZDAPP_CONFIG_PAN_ID=0xFFF1                       #
#                          -DNWK_START_DELAY=100 -DEXTENDED_JOINING_RANDOM_MA #
#                          SK=0x007F -DBEACON_REQUEST_DELAY=100               #
#                          -DBEACON_REQ_DELAY_MASK=0x00FF                     #
#                          -DROUTE_EXPIRY_TIME=30 -DAPSC_ACK_WAIT_DURATION_PO #
#                          LLED=3000 -DNWK_INDIRECT_MSG_TIMEOUT=7             #
#                          -DMAX_RREQ_ENTRIES=8 -DAPSC_MAX_FRAME_RETRIES=3    #
#                          -DNWK_MAX_DATA_RETRIES=2                           #
#                          -DMAX_POLL_FAILURE_RETRIES=2 -DMAX_BCAST=9         #
#                          -DAPS_MAX_GROUPS=16 -DMAX_RTG_ENTRIES=40           #
#                          -DNWK_MAX_BINDING_ENTRIES=4                        #
#                          -DMAX_BINDING_CLUSTER_IDS=4 "-DDEFAULT_KEY={0x01,  #
#                          0x03, 0x05, 0x07, 0x09, 0x0B, 0x0D, 0x0F, 0x00,    #
#                          0x02, 0x04, 0x06, 0x08, 0x0A, 0x0C, 0x0D}"         #
#                          -DMAC_MAX_FRAME_SIZE=116 "-DCONST=const __code"    #
#                          -DGENERIC=__generic -DRFD_RCVC_ALWAYS_ON=FALSE     #
#                          -DPOLL_RATE=1000 -DQUEUED_POLL_RATE=100            #
#                          -DRESPONSE_POLL_RATE=100) -DREJOIN_POLL_RATE=440   #
#                          "C:\Texas Instruments\ZStack-CC2530-2.3.0-1.4.0\Pr #
#                          ojects\zstack\Samples\GenericApp\Source\Enddevice. #
#                          c" -D ZTOOL_P1 -D MT_TASK -D MT_SYS_FUNC -D        #
#                          MT_ZDO_FUNC -D LCD_SUPPORTED=DEBUG -lC "C:\Texas   #
#                          Instruments\ZStack-CC2530-2.3.0-1.4.0\Projects\zst #
#                          ack\Samples\GenericApp\CC2530DB\RouterEB\List\"    #
#                          -lA "C:\Texas Instruments\ZStack-CC2530-2.3.0-1.4. #
#                          0\Projects\zstack\Samples\GenericApp\CC2530DB\Rout #
#                          erEB\List\" --diag_suppress Pe001,Pa010 -o         #
#                          "C:\Texas Instruments\ZStack-CC2530-2.3.0-1.4.0\Pr #
#                          ojects\zstack\Samples\GenericApp\CC2530DB\RouterEB #
#                          \Obj\" -e --require_prototypes --debug             #
#                          --core=plain --dptr=16,1 --data_model=large        #
#                          --code_model=banked --calling_convention=xdata_ree #
#                          ntrant --place_constants=data_rom                  #
#                          --nr_virtual_regs 16 -I "C:\Texas                  #
#                          Instruments\ZStack-CC2530-2.3.0-1.4.0\Projects\zst #
#                          ack\Samples\GenericApp\CC2530DB\" -I "C:\Texas     #
#                          Instruments\ZStack-CC2530-2.3.0-1.4.0\Projects\zst #
#                          ack\Samples\GenericApp\CC2530DB\..\SOURCE\" -I     #
#                          "C:\Texas Instruments\ZStack-CC2530-2.3.0-1.4.0\Pr #
#                          ojects\zstack\Samples\GenericApp\CC2530DB\..\..\.. #
#                          \ZMAIN\TI2530DB\" -I "C:\Texas                     #
#                          Instruments\ZStack-CC2530-2.3.0-1.4.0\Projects\zst #
#                          ack\Samples\GenericApp\CC2530DB\..\..\..\..\..\COM #
#                          PONENTS\MT\" -I "C:\Texas                          #
#                          Instruments\ZStack-CC2530-2.3.0-1.4.0\Projects\zst #
#                          ack\Samples\GenericApp\CC2530DB\..\..\..\..\..\COM #
#                          PONENTS\HAL\INCLUDE\" -I "C:\Texas                 #
#                          Instruments\ZStack-CC2530-2.3.0-1.4.0\Projects\zst #
#                          ack\Samples\GenericApp\CC2530DB\..\..\..\..\..\COM #
#                          PONENTS\HAL\TARGET\CC2530EB\" -I "C:\Texas         #
#                          Instruments\ZStack-CC2530-2.3.0-1.4.0\Projects\zst #
#                          ack\Samples\GenericApp\CC2530DB\..\..\..\..\..\COM #
#                          PONENTS\OSAL\MCU\CCSOC\" -I "C:\Texas              #
#                          Instruments\ZStack-CC2530-2.3.0-1.4.0\Projects\zst #
#                          ack\Samples\GenericApp\CC2530DB\..\..\..\..\..\COM #
#                          PONENTS\OSAL\INCLUDE\" -I "C:\Texas                #
#                          Instruments\ZStack-CC2530-2.3.0-1.4.0\Projects\zst #
#                          ack\Samples\GenericApp\CC2530DB\..\..\..\..\..\COM #
#                          PONENTS\STACK\AF\" -I "C:\Texas                    #
#                          Instruments\ZStack-CC2530-2.3.0-1.4.0\Projects\zst #
#                          ack\Samples\GenericApp\CC2530DB\..\..\..\..\..\COM #
#                          PONENTS\STACK\NWK\" -I "C:\Texas                   #
#                          Instruments\ZStack-CC2530-2.3.0-1.4.0\Projects\zst #
#                          ack\Samples\GenericApp\CC2530DB\..\..\..\..\..\COM #
#                          PONENTS\STACK\SEC\" -I "C:\Texas                   #
#                          Instruments\ZStack-CC2530-2.3.0-1.4.0\Projects\zst #
#                          ack\Samples\GenericApp\CC2530DB\..\..\..\..\..\COM #
#                          PONENTS\STACK\SAPI\" -I "C:\Texas                  #
#                          Instruments\ZStack-CC2530-2.3.0-1.4.0\Projects\zst #
#                          ack\Samples\GenericApp\CC2530DB\..\..\..\..\..\COM #
#                          PONENTS\STACK\SYS\" -I "C:\Texas                   #
#                          Instruments\ZStack-CC2530-2.3.0-1.4.0\Projects\zst #
#                          ack\Samples\GenericApp\CC2530DB\..\..\..\..\..\COM #
#                          PONENTS\STACK\ZDO\" -I "C:\Texas                   #
#                          Instruments\ZStack-CC2530-2.3.0-1.4.0\Projects\zst #
#                          ack\Samples\GenericApp\CC2530DB\..\..\..\..\..\COM #
#                          PONENTS\ZMAC\F8W\" -I "C:\Texas                    #
#                          Instruments\ZStack-CC2530-2.3.0-1.4.0\Projects\zst #
#                          ack\Samples\GenericApp\CC2530DB\..\..\..\..\..\COM #
#                          PONENTS\ZMAC\" -I "C:\Texas                        #
#                          Instruments\ZStack-CC2530-2.3.0-1.4.0\Projects\zst #
#                          ack\Samples\GenericApp\CC2530DB\..\..\..\..\..\COM #
#                          PONENTS\SERVICES\SADDR\" -I "C:\Texas              #
#                          Instruments\ZStack-CC2530-2.3.0-1.4.0\Projects\zst #
#                          ack\Samples\GenericApp\CC2530DB\..\..\..\..\..\COM #
#                          PONENTS\SERVICES\SDATA\" -I "C:\Texas              #
#                          Instruments\ZStack-CC2530-2.3.0-1.4.0\Projects\zst #
#                          ack\Samples\GenericApp\CC2530DB\..\..\..\..\..\COM #
#                          PONENTS\MAC\INCLUDE\" -I "C:\Texas                 #
#                          Instruments\ZStack-CC2530-2.3.0-1.4.0\Projects\zst #
#                          ack\Samples\GenericApp\CC2530DB\..\..\..\..\..\COM #
#                          PONENTS\MAC\HIGH_LEVEL\" -I "C:\Texas              #
#                          Instruments\ZStack-CC2530-2.3.0-1.4.0\Projects\zst #
#                          ack\Samples\GenericApp\CC2530DB\..\..\..\..\..\COM #
#                          PONENTS\MAC\LOW_LEVEL\srf04\" -I "C:\Texas         #
#                          Instruments\ZStack-CC2530-2.3.0-1.4.0\Projects\zst #
#                          ack\Samples\GenericApp\CC2530DB\..\..\..\..\..\COM #
#                          PONENTS\MAC\LOW_LEVEL\srf04\SINGLE_CHIP\" -I       #
#                          "C:\Program Files\IAR Systems\Embedded Workbench   #
#                          5.3 Evaluation version\8051\INC\" -I "C:\Program   #
#                          Files\IAR Systems\Embedded Workbench 5.3           #
#                          Evaluation version\8051\INC\CLIB\" -Ohz            #
#    List file          =  C:\Texas Instruments\ZStack-CC2530-2.3.0-1.4.0\Pro #
#                          jects\zstack\Samples\GenericApp\CC2530DB\RouterEB\ #
#                          List\Enddevice.lst                                 #
#    Object file        =  C:\Texas Instruments\ZStack-CC2530-2.3.0-1.4.0\Pro #
#                          jects\zstack\Samples\GenericApp\CC2530DB\RouterEB\ #
#                          Obj\Enddevice.r51                                  #
#                                                                             #
#                                                                             #
###############################################################################

C:\Texas Instruments\ZStack-CC2530-2.3.0-1.4.0\Projects\zstack\Samples\GenericApp\Source\Enddevice.c
      1          #include "OSAL.h"
      2          #include "AF.h"
      3          #include "ZDApp.h"
      4          #include "ZDObject.h"
      5          #include "ZDProfile.h"
      6          #include <string.h>
      7          
      8          #include "Coordinator.h"
      9          
     10          #include "DebugTrace.h"
     11          #if !defined(WIN32)
     12          #include "OnBoard.h"
     13          #endif
     14          
     15          #include "hal_led.h"
     16          #include "hal_lcd.h"
     17          #include "hal_key.h"
     18          #include "hal_uart.h"
     19          //#include "Sensor.h"
     20          #include "aps_groups.h"
     21          

   \                                 In  segment XDATA_ROM_C, align 1
     22          const cId_t GenericApp_ClusterList[GENERICAPP_MAX_CLUSTERS]={
   \                     GenericApp_ClusterList:
   \   000000   0100         DW 1
     23          GENERICAPP_CLUSTERID  \
     24           };
     25          

   \                                 In  segment XDATA_ROM_C, align 1
     26          const SimpleDescriptionFormat_t GenericApp_SimpleDesc=
   \                     GenericApp_SimpleDesc:
   \   000000   0A           DB 10
   \   000001   040F0100     DW 3844, 1
   \   000005   0000         DB 0, 0
   \   000007   0000         DW 0H
   \   000009   01           DB 1
   \   00000A   ....         DW GenericApp_ClusterList
     27          {
     28            GENERICAPP_ENDPOINT,
     29            GENERICAPP_PROFID,
     30            GENERICAPP_DEVICEID,
     31            GENERICAPP_DEVICE_VERSION,
     32            GENERICAPP_FLAGS,
     33            0,
     34            (cId_t *)NULL,
     35            GENERICAPP_MAX_CLUSTERS,
     36            (cId_t *)GenericApp_ClusterList,
     37          };

   \                                 In  segment XDATA_Z, align 1, keep-with-next
     38          endPointDesc_t GenericApp_epDesc;
   \                     GenericApp_epDesc:
   \   000000                DS 6
   \   000006                REQUIRE __INIT_XDATA_Z

   \                                 In  segment XDATA_Z, align 1, keep-with-next
     39          byte GenericApp_TaskID;
   \                     GenericApp_TaskID:
   \   000000                DS 1
   \   000001                REQUIRE __INIT_XDATA_Z

   \                                 In  segment XDATA_Z, align 1, keep-with-next
     40          byte GenericApp_TransID;
   \                     GenericApp_TransID:
   \   000000                DS 1
   \   000001                REQUIRE __INIT_XDATA_Z

   \                                 In  segment XDATA_Z, align 1, keep-with-next
     41          devStates_t GenericApp_NwkState;
   \                     GenericApp_NwkState:
   \   000000                DS 1
   \   000001                REQUIRE __INIT_XDATA_Z

   \                                 In  segment XDATA_Z, align 1, keep-with-next
     42          aps_Group_t GenericApp_Group;
   \                     GenericApp_Group:
   \   000000                DS 18
   \   000012                REQUIRE __INIT_XDATA_Z
     43          
     44          void GenericApp_MessageMSGCB(afIncomingMSGPacket_t *pckt);
     45          void GenericApp_SendTheMessage(void);
     46          

   \                                 In  segment BANKED_CODE, align 1, keep-with-next
     47          void GenericApp_Init(byte task_id)
   \                     GenericApp_Init:
     48          {
   \   000000   74F5         MOV     A,#-0xb
   \   000002   12....       LCALL   ?BANKED_ENTER_XDATA
   \   000005                ; Saved register size: 11
   \   000005                ; Auto size: 0
     49          	GenericApp_TaskID		=task_id;
   \   000005   E9           MOV     A,R1
   \   000006   90....       MOV     DPTR,#GenericApp_TaskID
   \   000009   F0           MOVX    @DPTR,A
     50          	GenericApp_NwkState	=DEV_INIT;
   \   00000A   7401         MOV     A,#0x1
   \   00000C   90....       MOV     DPTR,#GenericApp_NwkState
   \   00000F   F0           MOVX    @DPTR,A
     51          	GenericApp_TransID		=0;
   \   000010   E4           CLR     A
   \   000011   90....       MOV     DPTR,#GenericApp_TransID
   \   000014   F0           MOVX    @DPTR,A
     52          	GenericApp_epDesc.endPoint=GENERICAPP_ENDPOINT;
   \   000015   740A         MOV     A,#0xa
   \   000017   90....       MOV     DPTR,#GenericApp_epDesc
   \   00001A   F0           MOVX    @DPTR,A
     53          	GenericApp_epDesc.task_id=&GenericApp_TaskID;
   \   00001B   90....       MOV     DPTR,#(GenericApp_epDesc + 1)
   \   00001E   74..         MOV     A,#(GenericApp_TaskID & 0xff)
   \   000020   F0           MOVX    @DPTR,A
   \   000021   A3           INC     DPTR
   \   000022   74..         MOV     A,#((GenericApp_TaskID >> 8) & 0xff)
   \   000024   F0           MOVX    @DPTR,A
     54          	GenericApp_epDesc.simpleDesc=(SimpleDescriptionFormat_t *)&GenericApp_SimpleDesc;
   \   000025   90....       MOV     DPTR,#(GenericApp_epDesc + 3)
   \   000028   74..         MOV     A,#(GenericApp_SimpleDesc & 0xff)
   \   00002A   F0           MOVX    @DPTR,A
   \   00002B   A3           INC     DPTR
   \   00002C   74..         MOV     A,#((GenericApp_SimpleDesc >> 8) & 0xff)
   \   00002E   F0           MOVX    @DPTR,A
     55          	GenericApp_epDesc.latencyReq=noLatencyReqs;
   \   00002F   E4           CLR     A
   \   000030   90....       MOV     DPTR,#(GenericApp_epDesc + 5)
   \   000033   F0           MOVX    @DPTR,A
     56          	afRegister(&GenericApp_epDesc);
   \   000034                ; Setup parameters for call to function afRegister
   \   000034   7A..         MOV     R2,#(GenericApp_epDesc & 0xff)
   \   000036   7B..         MOV     R3,#((GenericApp_epDesc >> 8) & 0xff)
   \   000038   12....       LCALL   ??afRegister?relay
     57          	GenericApp_Group.ID=0x0001;
   \   00003B   90....       MOV     DPTR,#GenericApp_Group
   \   00003E   7401         MOV     A,#0x1
   \   000040   F0           MOVX    @DPTR,A
   \   000041   A3           INC     DPTR
   \   000042   E4           CLR     A
   \   000043   F0           MOVX    @DPTR,A
     58          	GenericApp_Group.name[0]=6;
   \   000044   7406         MOV     A,#0x6
   \   000046   90....       MOV     DPTR,#(GenericApp_Group + 2)
   \   000049   F0           MOVX    @DPTR,A
     59          	osal_memcpy(&(GenericApp_Group.name[1]),"Group1",6);
   \   00004A                ; Setup parameters for call to function osal_memcpy
   \   00004A   75....       MOV     ?V0 + 0,#(`?<Constant "Group1">` & 0xff)
   \   00004D   75....       MOV     ?V0 + 1,#((`?<Constant "Group1">` >> 8) & 0xff)
   \   000050   75..00       MOV     ?V0 + 2,#0x0
   \   000053   78..         MOV     R0,#?V0 + 0
   \   000055   12....       LCALL   ?PUSH_XSTACK_I_THREE
   \   000058   7C06         MOV     R4,#0x6
   \   00005A   7D00         MOV     R5,#0x0
   \   00005C   7A..         MOV     R2,#((GenericApp_Group + 3) & 0xff)
   \   00005E   7B..         MOV     R3,#(((GenericApp_Group + 3) >> 8) & 0xff)
   \   000060   12....       LCALL   ??osal_memcpy?relay
   \   000063   7403         MOV     A,#0x3
   \   000065                REQUIRE ?Subroutine3
   \   000065                ; // Fall through to label ?Subroutine3
     60          	
     61          }

   \                                 In  segment BANKED_CODE, align 1, keep-with-next
   \                     ?Subroutine3:
   \   000000   12....       LCALL   ?DEALLOC_XSTACK8
   \   000003   7F03         MOV     R7,#0x3
   \   000005   02....       LJMP    ?BANKED_LEAVE_XDATA
     62          

   \                                 In  segment BANKED_CODE, align 1, keep-with-next
     63          UINT16 GenericApp_ProcessEvent(byte tadk_id,UINT16 events)
   \                     GenericApp_ProcessEvent:
     64          {
   \   000000   74F4         MOV     A,#-0xc
   \   000002   12....       LCALL   ?BANKED_ENTER_XDATA
   \   000005                ; Saved register size: 12
   \   000005                ; Auto size: 0
   \   000005   8A..         MOV     ?V0 + 0,R2
   \   000007   8B..         MOV     ?V0 + 1,R3
     65          	afIncomingMSGPacket_t *MSGpkt;
     66          	if(events&SYS_EVENT_MSG)
   \   000009   7480         MOV     A,#-0x80
   \   00000B   55..         ANL     A,?V0 + 1
   \   00000D   F9           MOV     R1,A
   \   00000E   E4           CLR     A
   \   00000F   7001         JNZ     ??GenericApp_ProcessEvent_0
   \   000011   E9           MOV     A,R1
   \                     ??GenericApp_ProcessEvent_0:
   \   000012   605A         JZ      ??GenericApp_ProcessEvent_1
     67          		{
     68          			MSGpkt=(afIncomingMSGPacket_t *)osal_msg_receive(GenericApp_TaskID);
   \   000014                ; Setup parameters for call to function osal_msg_receive
   \   000014   801E         SJMP    ??GenericApp_ProcessEvent_2
     69          			while(MSGpkt)
     70          				{
     71          					switch(MSGpkt->hdr.event)
     72          						{
     73          							case AF_INCOMING_MSG_CMD:
     74          								GenericApp_MessageMSGCB(MSGpkt);
     75          								break;
     76          						      	case ZDO_STATE_CHANGE:
     77          									GenericApp_NwkState=(devStates_t)(MSGpkt->hdr.status);
   \                     ??GenericApp_ProcessEvent_3:
   \   000016   8E82         MOV     DPL,R6
   \   000018   8F83         MOV     DPH,R7
   \   00001A   A3           INC     DPTR
   \   00001B   E0           MOVX    A,@DPTR
   \   00001C   90....       MOV     DPTR,#GenericApp_NwkState
   \   00001F   F0           MOVX    @DPTR,A
     78          									if(GenericApp_NwkState==DEV_ROUTER)
   \   000020   6407         XRL     A,#0x7
   \   000022   7009         JNZ     ??GenericApp_ProcessEvent_4
     79          										{
     80          												aps_AddGroup(GENERICAPP_ENDPOINT,&GenericApp_Group);
   \   000024                ; Setup parameters for call to function aps_AddGroup
   \   000024   7A..         MOV     R2,#(GenericApp_Group & 0xff)
   \   000026   7B..         MOV     R3,#((GenericApp_Group >> 8) & 0xff)
   \   000028   790A         MOV     R1,#0xa
   \   00002A   12....       LCALL   ??aps_AddGroup?relay
     81          										}
     82          									break;
     83          								
     84          						        default:
     85          									break;
     86          						}
     87          					osal_msg_deallocate((uint8 *) MSGpkt);
   \                     ??GenericApp_ProcessEvent_4:
   \   00002D                ; Setup parameters for call to function osal_msg_deallocate
   \   00002D   EE           MOV     A,R6
   \   00002E   FA           MOV     R2,A
   \   00002F   EF           MOV     A,R7
   \   000030   FB           MOV     R3,A
   \   000031   12....       LCALL   ??osal_msg_deallocate?relay
     88          					MSGpkt=(afIncomingMSGPacket_t *)osal_msg_receive(GenericApp_TaskID);
   \   000034                ; Setup parameters for call to function osal_msg_receive
   \                     ??GenericApp_ProcessEvent_2:
   \   000034   90....       MOV     DPTR,#GenericApp_TaskID
   \   000037   E0           MOVX    A,@DPTR
   \   000038   F9           MOV     R1,A
   \   000039   12....       LCALL   ??osal_msg_receive?relay
   \   00003C   8A..         MOV     ?V0 + 2,R2
   \   00003E   8B..         MOV     ?V0 + 3,R3
   \   000040   AE..         MOV     R6,?V0 + 2
   \   000042   AF..         MOV     R7,?V0 + 3
   \   000044   EE           MOV     A,R6
   \   000045   7001         JNZ     ??GenericApp_ProcessEvent_5
   \   000047   EF           MOV     A,R7
   \                     ??GenericApp_ProcessEvent_5:
   \   000048   601B         JZ      ??GenericApp_ProcessEvent_6
   \   00004A   8E82         MOV     DPL,R6
   \   00004C   8F83         MOV     DPH,R7
   \   00004E   E0           MOVX    A,@DPTR
   \   00004F   12....       LCALL   ?UC_SWITCH_SPARSE
   \                     `?<Jumptable for GenericApp_ProcessEvent>_0`:
   \   000052   00           DB        0
   \   000053   02           DB        2
   \   000054   1A           DB        26
   \   000055   ....         DW        ??GenericApp_ProcessEvent_7
   \   000057   D1           DB        209
   \   000058   ....         DW        ??GenericApp_ProcessEvent_3
   \   00005A   ....         DW        ??GenericApp_ProcessEvent_4
   \                     ??GenericApp_ProcessEvent_7:
   \   00005C                ; Setup parameters for call to function GenericApp_MessageMSGCB
   \   00005C   EE           MOV     A,R6
   \   00005D   FA           MOV     R2,A
   \   00005E   EF           MOV     A,R7
   \   00005F   FB           MOV     R3,A
   \   000060   12....       LCALL   ??GenericApp_MessageMSGCB?relay
   \   000063   80C8         SJMP    ??GenericApp_ProcessEvent_4
     89          				}
     90          			return (events ^SYS_EVENT_MSG);
   \                     ??GenericApp_ProcessEvent_6:
   \   000065   AA..         MOV     R2,?V0 + 0
   \   000067   7480         MOV     A,#-0x80
   \   000069   65..         XRL     A,?V0 + 1
   \   00006B   FB           MOV     R3,A
   \   00006C   8004         SJMP    ??GenericApp_ProcessEvent_8
     91          		
     92          		}
     93          
     94          	return 0;
   \                     ??GenericApp_ProcessEvent_1:
   \   00006E   7A00         MOV     R2,#0x0
   \   000070   7B00         MOV     R3,#0x0
   \                     ??GenericApp_ProcessEvent_8:
   \   000072                REQUIRE ?Subroutine4
   \   000072                ; // Fall through to label ?Subroutine4
     95          }

   \                                 In  segment BANKED_CODE, align 1, keep-with-next
   \                     ?Subroutine4:
   \   000000   7F04         MOV     R7,#0x4
   \   000002   02....       LJMP    ?BANKED_LEAVE_XDATA

   \                                 In  segment BANKED_CODE, align 1, keep-with-next
     96          void GenericApp_MessageMSGCB(afIncomingMSGPacket_t * pkt)
   \                     GenericApp_MessageMSGCB:
     97          {
   \   000000   74F5         MOV     A,#-0xb
   \   000002   12....       LCALL   ?BANKED_ENTER_XDATA
   \   000005                ; Saved register size: 11
   \   000005                ; Auto size: 18
   \   000005   74EE         MOV     A,#-0x12
   \   000007   12....       LCALL   ?ALLOC_XSTACK8
     98          	char buf[18];
     99          	switch(pkt->clusterId)
   \   00000A   8A82         MOV     DPL,R2
   \   00000C   8B83         MOV     DPH,R3
   \   00000E   A3           INC     DPTR
   \   00000F   A3           INC     DPTR
   \   000010   A3           INC     DPTR
   \   000011   A3           INC     DPTR
   \   000012   E0           MOVX    A,@DPTR
   \   000013   6401         XRL     A,#0x1
   \   000015   7002         JNZ     ??GenericApp_MessageMSGCB_0
   \   000017   A3           INC     DPTR
   \   000018   E0           MOVX    A,@DPTR
   \                     ??GenericApp_MessageMSGCB_0:
   \   000019   7068         JNZ     ??GenericApp_MessageMSGCB_1
    100          		{
    101                          case GENERICAPP_CLUSTERID:
    102          				osal_memcpy(buf,pkt->cmd.Data,osal_strlen("Coordinator send!")+1);
   \   00001B                ; Setup parameters for call to function osal_memcpy
   \   00001B   EA           MOV     A,R2
   \   00001C   2421         ADD     A,#0x21
   \   00001E   F582         MOV     DPL,A
   \   000020   EB           MOV     A,R3
   \   000021   3400         ADDC    A,#0x0
   \   000023   F583         MOV     DPH,A
   \   000025   E0           MOVX    A,@DPTR
   \   000026   F5..         MOV     ?V0 + 0,A
   \   000028   A3           INC     DPTR
   \   000029   E0           MOVX    A,@DPTR
   \   00002A   F5..         MOV     ?V0 + 1,A
   \   00002C   75..00       MOV     ?V0 + 2,#0x0
   \   00002F   78..         MOV     R0,#?V0 + 0
   \   000031   12....       LCALL   ?PUSH_XSTACK_I_THREE
   \   000034                ; Setup parameters for call to function osal_strlen
   \   000034   12....       LCALL   ?Subroutine0 & 0xFFFF
   \                     ??CrossCallReturnLabel_0:
   \   000037   12....       LCALL   ?XSTACK_DISP0_8
   \   00003A   AA82         MOV     R2,DPL
   \   00003C   AB83         MOV     R3,DPH
   \   00003E   12....       LCALL   ??osal_memcpy?relay
   \   000041   7403         MOV     A,#0x3
   \   000043   12....       LCALL   ?DEALLOC_XSTACK8
    103          				HalUARTWrite(0, buf,osal_strlen("Coordinator send!")+1);
                 				                ^
Warning[Pe167]: argument of type "char *" is incompatible with parameter of
          type "unsigned char *"
   \   000046                ; Setup parameters for call to function HalUARTWrite
   \   000046                ; Setup parameters for call to function osal_strlen
   \   000046   7A..         MOV     R2,#(`?<Constant "Coordinator send!">` & 0xff)
   \   000048   7B..         MOV     R3,#((`?<Constant "Coordinator send!">` >> 8) & 0xff)
   \   00004A   12....       LCALL   ?Subroutine1 & 0xFFFF
   \                     ??CrossCallReturnLabel_2:
   \   00004D   FC           MOV     R4,A
   \   00004E   E4           CLR     A
   \   00004F   35..         ADDC    A,?V0 + 1
   \   000051   FD           MOV     R5,A
   \   000052   85..82       MOV     DPL,?XSP + 0
   \   000055   85..83       MOV     DPH,?XSP + 1
   \   000058   AA82         MOV     R2,DPL
   \   00005A   AB83         MOV     R3,DPH
   \   00005C   7900         MOV     R1,#0x0
   \   00005E   12....       LCALL   ??HalUARTWrite?relay
    104          				if(osal_memcmp(buf,"Coordinator send!",osal_strlen("Coordinator send!")+1));
   \   000061                ; Setup parameters for call to function osal_memcmp
   \   000061   75....       MOV     ?V0 + 0,#(`?<Constant "Coordinator send!">` & 0xff)
   \   000064   75....       MOV     ?V0 + 1,#((`?<Constant "Coordinator send!">` >> 8) & 0xff)
   \   000067   78..         MOV     R0,#?V0 + 0
   \   000069   12....       LCALL   ?PUSH_XSTACK_I_THREE
   \   00006C                ; Setup parameters for call to function osal_strlen
   \   00006C   12....       LCALL   ?Subroutine0 & 0xFFFF
   \                     ??CrossCallReturnLabel_1:
   \   00006F   12....       LCALL   ?XSTACK_DISP0_8
   \   000072   A982         MOV     R1,DPL
   \   000074   AA83         MOV     R2,DPH
   \   000076   7B00         MOV     R3,#0x0
   \   000078   12....       LCALL   ??osal_memcmp?relay
   \   00007B   7403         MOV     A,#0x3
   \   00007D   12....       LCALL   ?DEALLOC_XSTACK8
    105          					{
    106          						GenericApp_SendTheMessage();
   \   000080                ; Setup parameters for call to function GenericApp_SendTheMessage
   \   000080   12....       LCALL   ??GenericApp_SendTheMessage?relay
    107          					}
    108          				break;
    109          		}
    110          }
   \                     ??GenericApp_MessageMSGCB_1:
   \   000083   7412         MOV     A,#0x12
   \   000085   02....       LJMP    ?Subroutine3 & 0xFFFF

   \                                 In  segment BANKED_CODE, align 1, keep-with-next
   \                     ?Subroutine0:
   \   000000   7A..         MOV     R2,#(`?<Constant "Coordinator send!">` & 0xff)
   \   000002   7B..         MOV     R3,#((`?<Constant "Coordinator send!">` >> 8) & 0xff)
   \   000004   12....       LCALL   ?Subroutine2 & 0xFFFF
   \                     ??CrossCallReturnLabel_4:
   \   000007   FC           MOV     R4,A
   \   000008   E4           CLR     A
   \   000009   35..         ADDC    A,?V0 + 1
   \   00000B   FD           MOV     R5,A
   \   00000C   7403         MOV     A,#0x3
   \   00000E   22           RET

   \                                 In  segment BANKED_CODE, align 1, keep-with-next
   \                     ?Subroutine1:
   \   000000   12....       LCALL   ?Subroutine2 & 0xFFFF
   \                     ??CrossCallReturnLabel_5:
   \   000003   22           RET

   \                                 In  segment BANKED_CODE, align 1, keep-with-next
   \                     ?Subroutine2:
   \   000000   12....       LCALL   ??osal_strlen?relay
   \   000003   8A..         MOV     ?V0 + 0,R2
   \   000005   8B..         MOV     ?V0 + 1,R3
   \   000007   7401         MOV     A,#0x1
   \   000009   25..         ADD     A,?V0 + 0
   \   00000B   22           RET

   \                                 In  segment BANKED_CODE, align 1, keep-with-next
    111          void GenericApp_SendTheMessage(void)
   \                     GenericApp_SendTheMessage:
    112          {
   \   000000   74F4         MOV     A,#-0xc
   \   000002   12....       LCALL   ?BANKED_ENTER_XDATA
   \   000005                ; Saved register size: 12
   \   000005                ; Auto size: 12
   \   000005   74F4         MOV     A,#-0xc
   \   000007   12....       LCALL   ?ALLOC_XSTACK8
    113          	unsigned char *theMessageData="Router received!";
    114          	afAddrType_t my_DstAddr;
    115          	my_DstAddr.addrMode=(afAddrMode_t)Addr16Bit;
   \   00000A   7408         MOV     A,#0x8
   \   00000C   12....       LCALL   ?XSTACK_DISP0_8
   \   00000F   7402         MOV     A,#0x2
   \   000011   F0           MOVX    @DPTR,A
    116          	my_DstAddr.endPoint=GENERICAPP_ENDPOINT;
   \   000012   7409         MOV     A,#0x9
   \   000014   12....       LCALL   ?XSTACK_DISP0_8
   \   000017   740A         MOV     A,#0xa
   \   000019   F0           MOVX    @DPTR,A
    117          	my_DstAddr.addr.shortAddr=0x0000;
   \   00001A   85..82       MOV     DPL,?XSP + 0
   \   00001D   85..83       MOV     DPH,?XSP + 1
   \   000020   E4           CLR     A
   \   000021   F0           MOVX    @DPTR,A
   \   000022   A3           INC     DPTR
   \   000023   F0           MOVX    @DPTR,A
    118          	AF_DataRequest(&my_DstAddr, &GenericApp_epDesc, GENERICAPP_CLUSTERID, 
    119          					osal_strlen((char *)theMessageData)+1,
    120          					theMessageData,
    121          					&GenericApp_TransID,
    122          					AF_DISCV_ROUTE,
    123          					AF_DEFAULT_RADIUS);
   \   000024   75....       MOV     ?V0 + 0,#(`?<Constant "Router received!">` & 0xff)
   \   000027   75....       MOV     ?V0 + 1,#((`?<Constant "Router received!">` >> 8) & 0xff)
   \   00002A                ; Setup parameters for call to function AF_DataRequest
   \   00002A   75..1E       MOV     ?V0 + 2,#0x1e
   \   00002D   78..         MOV     R0,#?V0 + 2
   \   00002F   12....       LCALL   ?PUSH_XSTACK_I_ONE
   \   000032   75....       MOV     ?V0 + 2,#(GenericApp_TransID & 0xff)
   \   000035   75....       MOV     ?V0 + 3,#((GenericApp_TransID >> 8) & 0xff)
   \   000038   78..         MOV     R0,#?V0 + 2
   \   00003A   12....       LCALL   ?PUSH_XSTACK_I_TWO
   \   00003D   78..         MOV     R0,#?V0 + 0
   \   00003F   12....       LCALL   ?PUSH_XSTACK_I_TWO
   \   000042                ; Setup parameters for call to function osal_strlen
   \   000042   7A..         MOV     R2,#(`?<Constant "Router received!">` & 0xff)
   \   000044   7B..         MOV     R3,#((`?<Constant "Router received!">` >> 8) & 0xff)
   \   000046   12....       LCALL   ?Subroutine1 & 0xFFFF
   \                     ??CrossCallReturnLabel_3:
   \   000049   F5..         MOV     ?V0 + 0,A
   \   00004B   E4           CLR     A
   \   00004C   35..         ADDC    A,?V0 + 1
   \   00004E   F5..         MOV     ?V0 + 1,A
   \   000050   78..         MOV     R0,#?V0 + 0
   \   000052   12....       LCALL   ?PUSH_XSTACK_I_TWO
   \   000055   75..01       MOV     ?V0 + 0,#0x1
   \   000058   75..00       MOV     ?V0 + 1,#0x0
   \   00005B   78..         MOV     R0,#?V0 + 0
   \   00005D   12....       LCALL   ?PUSH_XSTACK_I_TWO
   \   000060   7920         MOV     R1,#0x20
   \   000062   7C..         MOV     R4,#(GenericApp_epDesc & 0xff)
   \   000064   7D..         MOV     R5,#((GenericApp_epDesc >> 8) & 0xff)
   \   000066   7409         MOV     A,#0x9
   \   000068   12....       LCALL   ?XSTACK_DISP0_8
   \   00006B   AA82         MOV     R2,DPL
   \   00006D   AB83         MOV     R3,DPH
   \   00006F   12....       LCALL   ??AF_DataRequest?relay
   \   000072   7409         MOV     A,#0x9
   \   000074   12....       LCALL   ?DEALLOC_XSTACK8
    124          	HalLedSet(HAL_LED_2,HAL_LED_MODE_TOGGLE);
   \   000077                ; Setup parameters for call to function HalLedSet
   \   000077   7A08         MOV     R2,#0x8
   \   000079   7902         MOV     R1,#0x2
   \   00007B   12....       LCALL   ??HalLedSet?relay
    125          
    126          		
    127          }
   \   00007E   740C         MOV     A,#0xc
   \   000080   12....       LCALL   ?DEALLOC_XSTACK8
   \   000083   02....       LJMP    ?Subroutine4 & 0xFFFF

   \                                 In  segment BANK_RELAYS, align 1
   \                     ??GenericApp_Init?relay:
   \   000000   12....       LCALL   ?BDISPATCH
   \   000003   ......       DC24    GenericApp_Init

   \                                 In  segment BANK_RELAYS, align 1
   \                     ??GenericApp_ProcessEvent?relay:
   \   000000   12....       LCALL   ?BDISPATCH
   \   000003   ......       DC24    GenericApp_ProcessEvent

   \                                 In  segment BANK_RELAYS, align 1
   \                     ??GenericApp_MessageMSGCB?relay:
   \   000000   12....       LCALL   ?BDISPATCH
   \   000003   ......       DC24    GenericApp_MessageMSGCB

   \                                 In  segment BANK_RELAYS, align 1
   \                     ??GenericApp_SendTheMessage?relay:
   \   000000   12....       LCALL   ?BDISPATCH
   \   000003   ......       DC24    GenericApp_SendTheMessage

   \                                 In  segment XDATA_ROM_C, align 1
   \                     `?<Constant "Group1">`:
   \   000000   47726F75     DB "Group1"
   \            703100  

   \                                 In  segment XDATA_ROM_C, align 1
   \                     `?<Constant "Coordinator send!">`:
   \   000000   436F6F72     DB "Coordinator send!"
   \            64696E61
   \            746F7220
   \            73656E64
   \            2100    

   \                                 In  segment XDATA_ROM_C, align 1
   \                     `?<Constant "Router received!">`:
   \   000000   526F7574     DB "Router received!"
   \            65722072
   \            65636569
   \            76656421
   \            00      
    128          
    129          
    130          
    131          
    132          

   Maximum stack usage in bytes:

     Function                       ISTACK PSTACK XSTACK
     --------                       ------ ------ ------
     GenericApp_Init                    0      0     14
       -> afRegister                    0      0     22
       -> osal_memcpy                   0      0     28
     GenericApp_MessageMSGCB            0      0     44
       -> osal_strlen                   0      0     64
       -> osal_memcpy                   0      0     64
       -> osal_strlen                   0      0     58
       -> HalUARTWrite                  0      0     58
       -> osal_strlen                   0      0     64
       -> osal_memcmp                   0      0     64
       -> GenericApp_SendTheMessage     0      0     58
     GenericApp_ProcessEvent            0      0     12
       -> osal_msg_receive              0      0     24
       -> aps_AddGroup                  0      0     24
       -> osal_msg_deallocate           0      0     24
       -> osal_msg_receive              0      0     24
       -> GenericApp_MessageMSGCB       0      0     24
     GenericApp_SendTheMessage          1      0     62
       -> osal_strlen                   0      0     58
       -> AF_DataRequest                0      0     66
       -> HalLedSet                     0      0     48


   Segment part sizes:

     Function/Label                    Bytes
     --------------                    -----
     GenericApp_ClusterList               2
     GenericApp_SimpleDesc               12
     GenericApp_epDesc                    6
     GenericApp_TaskID                    1
     GenericApp_TransID                   1
     GenericApp_NwkState                  1
     GenericApp_Group                    18
     GenericApp_Init                    101
     ?Subroutine3                         8
     GenericApp_ProcessEvent            114
     ?Subroutine4                         5
     GenericApp_MessageMSGCB            136
     ?Subroutine0                        15
     ?Subroutine1                         4
     ?Subroutine2                        12
     GenericApp_SendTheMessage          134
     ??GenericApp_Init?relay              6
     ??GenericApp_ProcessEvent?relay      6
     ??GenericApp_MessageMSGCB?relay      6
     ??GenericApp_SendTheMessage?relay    6
     ?<Constant "Group1">                 7
     ?<Constant "Coordinator send!">     18
     ?<Constant "Router received!">      17

 
 529 bytes in segment BANKED_CODE
  24 bytes in segment BANK_RELAYS
  56 bytes in segment XDATA_ROM_C
  27 bytes in segment XDATA_Z
 
 553 bytes of CODE  memory
  56 bytes of CONST memory
  27 bytes of XDATA memory

Errors: none
Warnings: 1
