###############################################################################
#                                                                             #
# IAR C/C++ Compiler V7.51A/W32 for 8051                17/Aug/2012  15:54:44 #
# Copyright 2004-2009 IAR Systems AB.                                         #
#                                                                             #
#    Core               =  plain                                              #
#    Code model         =  banked                                             #
#    Data model         =  large                                              #
#    Calling convention =  xdata reentrant                                    #
#    Constant location  =  data_rom                                           #
#    Dptr setup         =  1,16                                               #
#    Source file        =  C:\Texas Instruments\ZStack-CC2530-2.3.0-1.4.0\Pro #
#                          jects\zstack\Samples\GenericApp\Source\Coordinator #
#                          .c                                                 #
#    Command line       =  -f "C:\Texas Instruments\ZStack-CC2530-2.3.0-1.4.0 #
#                          \Projects\zstack\Samples\GenericApp\CC2530DB\..\.. #
#                          \..\Tools\CC2530DB\f8wCoord.cfg" (-DCPU32MHZ       #
#                          -DROOT=__near_func -DMAC_CFG_APP_PENDING_QUEUE=TRU #
#                          E -DZDO_COORDINATOR -DRTR_NWK -DBLINK_LEDS) -f     #
#                          "C:\Texas Instruments\ZStack-CC2530-2.3.0-1.4.0\Pr #
#                          ojects\zstack\Samples\GenericApp\CC2530DB\..\..\.. #
#                          \Tools\CC2530DB\f8wConfig.cfg" (-DSECURE=0         #
#                          -DZG_SECURE_DYNAMIC=0 -DREFLECTOR                  #
#                          -DDEFAULT_CHANLIST=0x00000800                      #
#                          -DZDAPP_CONFIG_PAN_ID=0xFFF1                       #
#                          -DNWK_START_DELAY=100 -DEXTENDED_JOINING_RANDOM_MA #
#                          SK=0x007F -DBEACON_REQUEST_DELAY=100               #
#                          -DBEACON_REQ_DELAY_MASK=0x00FF                     #
#                          -DROUTE_EXPIRY_TIME=30 -DAPSC_ACK_WAIT_DURATION_PO #
#                          LLED=3000 -DNWK_INDIRECT_MSG_TIMEOUT=7             #
#                          -DMAX_RREQ_ENTRIES=8 -DAPSC_MAX_FRAME_RETRIES=3    #
#                          -DNWK_MAX_DATA_RETRIES=2                           #
#                          -DMAX_POLL_FAILURE_RETRIES=2 -DMAX_BCAST=9         #
#                          -DAPS_MAX_GROUPS=16 -DMAX_RTG_ENTRIES=40           #
#                          -DNWK_MAX_BINDING_ENTRIES=4                        #
#                          -DMAX_BINDING_CLUSTER_IDS=4 "-DDEFAULT_KEY={0x01,  #
#                          0x03, 0x05, 0x07, 0x09, 0x0B, 0x0D, 0x0F, 0x00,    #
#                          0x02, 0x04, 0x06, 0x08, 0x0A, 0x0C, 0x0D}"         #
#                          -DMAC_MAX_FRAME_SIZE=116 "-DCONST=const __code"    #
#                          -DGENERIC=__generic -DRFD_RCVC_ALWAYS_ON=FALSE     #
#                          -DPOLL_RATE=1000 -DQUEUED_POLL_RATE=100            #
#                          -DRESPONSE_POLL_RATE=100) -DREJOIN_POLL_RATE=440   #
#                          "C:\Texas Instruments\ZStack-CC2530-2.3.0-1.4.0\Pr #
#                          ojects\zstack\Samples\GenericApp\Source\Coordinato #
#                          r.c" -D ZTOOL_P1 -D MT_TASK -D MT_SYS_FUNC -D      #
#                          MT_ZDO_FUNC -D LCD_SUPPORTED=DEBUG -lC "C:\Texas   #
#                          Instruments\ZStack-CC2530-2.3.0-1.4.0\Projects\zst #
#                          ack\Samples\GenericApp\CC2530DB\CoordinatorEB\List #
#                          \" -lA "C:\Texas Instruments\ZStack-CC2530-2.3.0-1 #
#                          .4.0\Projects\zstack\Samples\GenericApp\CC2530DB\C #
#                          oordinatorEB\List\" --diag_suppress Pe001,Pa010    #
#                          -o "C:\Texas Instruments\ZStack-CC2530-2.3.0-1.4.0 #
#                          \Projects\zstack\Samples\GenericApp\CC2530DB\Coord #
#                          inatorEB\Obj\" -e --require_prototypes --debug     #
#                          --core=plain --dptr=16,1 --data_model=large        #
#                          --code_model=banked --calling_convention=xdata_ree #
#                          ntrant --place_constants=data_rom                  #
#                          --nr_virtual_regs 16 -I "C:\Texas                  #
#                          Instruments\ZStack-CC2530-2.3.0-1.4.0\Projects\zst #
#                          ack\Samples\GenericApp\CC2530DB\" -I "C:\Texas     #
#                          Instruments\ZStack-CC2530-2.3.0-1.4.0\Projects\zst #
#                          ack\Samples\GenericApp\CC2530DB\..\SOURCE\" -I     #
#                          "C:\Texas Instruments\ZStack-CC2530-2.3.0-1.4.0\Pr #
#                          ojects\zstack\Samples\GenericApp\CC2530DB\..\..\.. #
#                          \ZMAIN\TI2530DB\" -I "C:\Texas                     #
#                          Instruments\ZStack-CC2530-2.3.0-1.4.0\Projects\zst #
#                          ack\Samples\GenericApp\CC2530DB\..\..\..\..\..\COM #
#                          PONENTS\MT\" -I "C:\Texas                          #
#                          Instruments\ZStack-CC2530-2.3.0-1.4.0\Projects\zst #
#                          ack\Samples\GenericApp\CC2530DB\..\..\..\..\..\COM #
#                          PONENTS\HAL\INCLUDE\" -I "C:\Texas                 #
#                          Instruments\ZStack-CC2530-2.3.0-1.4.0\Projects\zst #
#                          ack\Samples\GenericApp\CC2530DB\..\..\..\..\..\COM #
#                          PONENTS\HAL\TARGET\CC2530EB\" -I "C:\Texas         #
#                          Instruments\ZStack-CC2530-2.3.0-1.4.0\Projects\zst #
#                          ack\Samples\GenericApp\CC2530DB\..\..\..\..\..\COM #
#                          PONENTS\OSAL\MCU\CCSOC\" -I "C:\Texas              #
#                          Instruments\ZStack-CC2530-2.3.0-1.4.0\Projects\zst #
#                          ack\Samples\GenericApp\CC2530DB\..\..\..\..\..\COM #
#                          PONENTS\OSAL\INCLUDE\" -I "C:\Texas                #
#                          Instruments\ZStack-CC2530-2.3.0-1.4.0\Projects\zst #
#                          ack\Samples\GenericApp\CC2530DB\..\..\..\..\..\COM #
#                          PONENTS\STACK\AF\" -I "C:\Texas                    #
#                          Instruments\ZStack-CC2530-2.3.0-1.4.0\Projects\zst #
#                          ack\Samples\GenericApp\CC2530DB\..\..\..\..\..\COM #
#                          PONENTS\STACK\NWK\" -I "C:\Texas                   #
#                          Instruments\ZStack-CC2530-2.3.0-1.4.0\Projects\zst #
#                          ack\Samples\GenericApp\CC2530DB\..\..\..\..\..\COM #
#                          PONENTS\STACK\SEC\" -I "C:\Texas                   #
#                          Instruments\ZStack-CC2530-2.3.0-1.4.0\Projects\zst #
#                          ack\Samples\GenericApp\CC2530DB\..\..\..\..\..\COM #
#                          PONENTS\STACK\SAPI\" -I "C:\Texas                  #
#                          Instruments\ZStack-CC2530-2.3.0-1.4.0\Projects\zst #
#                          ack\Samples\GenericApp\CC2530DB\..\..\..\..\..\COM #
#                          PONENTS\STACK\SYS\" -I "C:\Texas                   #
#                          Instruments\ZStack-CC2530-2.3.0-1.4.0\Projects\zst #
#                          ack\Samples\GenericApp\CC2530DB\..\..\..\..\..\COM #
#                          PONENTS\STACK\ZDO\" -I "C:\Texas                   #
#                          Instruments\ZStack-CC2530-2.3.0-1.4.0\Projects\zst #
#                          ack\Samples\GenericApp\CC2530DB\..\..\..\..\..\COM #
#                          PONENTS\ZMAC\F8W\" -I "C:\Texas                    #
#                          Instruments\ZStack-CC2530-2.3.0-1.4.0\Projects\zst #
#                          ack\Samples\GenericApp\CC2530DB\..\..\..\..\..\COM #
#                          PONENTS\ZMAC\" -I "C:\Texas                        #
#                          Instruments\ZStack-CC2530-2.3.0-1.4.0\Projects\zst #
#                          ack\Samples\GenericApp\CC2530DB\..\..\..\..\..\COM #
#                          PONENTS\SERVICES\SADDR\" -I "C:\Texas              #
#                          Instruments\ZStack-CC2530-2.3.0-1.4.0\Projects\zst #
#                          ack\Samples\GenericApp\CC2530DB\..\..\..\..\..\COM #
#                          PONENTS\SERVICES\SDATA\" -I "C:\Texas              #
#                          Instruments\ZStack-CC2530-2.3.0-1.4.0\Projects\zst #
#                          ack\Samples\GenericApp\CC2530DB\..\..\..\..\..\COM #
#                          PONENTS\MAC\INCLUDE\" -I "C:\Texas                 #
#                          Instruments\ZStack-CC2530-2.3.0-1.4.0\Projects\zst #
#                          ack\Samples\GenericApp\CC2530DB\..\..\..\..\..\COM #
#                          PONENTS\MAC\HIGH_LEVEL\" -I "C:\Texas              #
#                          Instruments\ZStack-CC2530-2.3.0-1.4.0\Projects\zst #
#                          ack\Samples\GenericApp\CC2530DB\..\..\..\..\..\COM #
#                          PONENTS\MAC\LOW_LEVEL\srf04\" -I "C:\Texas         #
#                          Instruments\ZStack-CC2530-2.3.0-1.4.0\Projects\zst #
#                          ack\Samples\GenericApp\CC2530DB\..\..\..\..\..\COM #
#                          PONENTS\MAC\LOW_LEVEL\srf04\SINGLE_CHIP\" -I       #
#                          "C:\Program Files\IAR Systems\Embedded Workbench   #
#                          5.3 Evaluation version\8051\INC\" -I "C:\Program   #
#                          Files\IAR Systems\Embedded Workbench 5.3           #
#                          Evaluation version\8051\INC\CLIB\" -Ohz            #
#    List file          =  C:\Texas Instruments\ZStack-CC2530-2.3.0-1.4.0\Pro #
#                          jects\zstack\Samples\GenericApp\CC2530DB\Coordinat #
#                          orEB\List\Coordinator.lst                          #
#    Object file        =  C:\Texas Instruments\ZStack-CC2530-2.3.0-1.4.0\Pro #
#                          jects\zstack\Samples\GenericApp\CC2530DB\Coordinat #
#                          orEB\Obj\Coordinator.r51                           #
#                                                                             #
#                                                                             #
###############################################################################

C:\Texas Instruments\ZStack-CC2530-2.3.0-1.4.0\Projects\zstack\Samples\GenericApp\Source\Coordinator.c
      1          #include "OSAL.h"
      2          #include "AF.h"
      3          #include "ZDApp.h"
      4          #include "ZDObject.h"
      5          #include "ZDProfile.h"
      6          #include <string.h>
      7          
      8          #include "Coordinator.h"
      9          
     10          #include "DebugTrace.h"
     11          #if !defined(WIN32)
     12          #include "OnBoard.h"
     13          #endif
     14          
     15          #include "hal_led.h"
     16          #include "hal_lcd.h"
     17          #include "hal_key.h"
     18          #include "hal_uart.h"
     19          #include "OSAL_Nv.h"
     20          
     21          #define SEND_TO_ALL_EVENT		0x01
     22          

   \                                 In  segment XDATA_ROM_C, align 1
     23          const cId_t GenericApp_ClusterList[GENERICAPP_MAX_CLUSTERS]={
   \                     GenericApp_ClusterList:
   \   000000   0100         DW 1
     24          GENERICAPP_CLUSTERID  \
     25           };

   \                                 In  segment XDATA_ROM_C, align 1
     26          const SimpleDescriptionFormat_t GenericApp_SimpleDesc=
   \                     GenericApp_SimpleDesc:
   \   000000   0A           DB 10
   \   000001   040F0100     DW 3844, 1
   \   000005   0001         DB 0, 1
   \   000007   ....         DW GenericApp_ClusterList
   \   000009   00           DB 0
   \   00000A   0000         DW 0H
     27          {
     28            GENERICAPP_ENDPOINT,
     29            GENERICAPP_PROFID,
     30            GENERICAPP_DEVICEID,
     31            GENERICAPP_DEVICE_VERSION,
     32            GENERICAPP_FLAGS,
     33            GENERICAPP_MAX_CLUSTERS,
     34            (cId_t *)GenericApp_ClusterList,
     35            0,
     36            (cId_t *)NULL
     37          };

   \                                 In  segment XDATA_Z, align 1, keep-with-next
     38          endPointDesc_t GenericApp_epDesc;
   \                     GenericApp_epDesc:
   \   000000                DS 6
   \   000006                REQUIRE __INIT_XDATA_Z

   \                                 In  segment XDATA_Z, align 1, keep-with-next
     39          devStates_t GenericApp_NwkState;
   \                     GenericApp_NwkState:
   \   000000                DS 1
   \   000001                REQUIRE __INIT_XDATA_Z
     40          

   \                                 In  segment XDATA_Z, align 1, keep-with-next
     41          byte GenericApp_TaskID;
   \                     GenericApp_TaskID:
   \   000000                DS 1
   \   000001                REQUIRE __INIT_XDATA_Z

   \                                 In  segment XDATA_Z, align 1, keep-with-next
     42          byte GenericApp_TransID;
   \                     GenericApp_TransID:
   \   000000                DS 1
   \   000001                REQUIRE __INIT_XDATA_Z

   \                                 In  segment XDATA_Z, align 1, keep-with-next
     43          unsigned char uartbuf[128];
   \                     uartbuf:
   \   000000                DS 128
   \   000080                REQUIRE __INIT_XDATA_Z
     44          
     45          void GenericApp_MessageMSGCB(afIncomingMSGPacket_t *pckt);
     46          void GenericApp_SendTheMessage(void);
     47          /*
     48          static void rxCB(uint8 port, uint8 event);
     49          static void rxCB(uint8 port, uint8 event)
     50          {
     51          	uint8 value_read;
     52          	uint8 value=18;
     53          	uint8 uartbuf[2];
     54          	uint8 cmd[6];
     55          	HalUARTRead(0,cmd,6);
     56          	if(osal_memcmp(cmd,"nvread",6))
     57          		{
     58          			osal_nv_item_init(TEST_NV,1,NULL);
     59          			osal_nv_write(TEST_NV,0,1,&value);
     60          			osal_nv_read(TEST_NV,0,1,&value_read);
     61          			uartbuf[0]=value_read/10+'0';
     62          			uartbuf[1]=value_read%10+'0';
     63          			HalUARTWrite(0,uartbuf,2);
     64          		}
     65          }*/
     66          

   \                                 In  segment BANKED_CODE, align 1, keep-with-next
     67          void GenericApp_Init(byte task_id)
   \                     GenericApp_Init:
     68          {
   \   000000   C082         PUSH    DPL
   \   000002   C083         PUSH    DPH
   \   000004                ; Saved register size: 2
   \   000004                ; Auto size: 29
   \   000004   74E3         MOV     A,#-0x1d
   \   000006   12....       LCALL   ?ALLOC_XSTACK8
     69          	halUARTCfg_t uartConfig;
     70          	
     71          	GenericApp_TaskID		=task_id;
   \   000009   E9           MOV     A,R1
   \   00000A   90....       MOV     DPTR,#GenericApp_TaskID
   \   00000D   F0           MOVX    @DPTR,A
     72          	GenericApp_TransID		=0;
   \   00000E   E4           CLR     A
   \   00000F   90....       MOV     DPTR,#GenericApp_TransID
   \   000012   F0           MOVX    @DPTR,A
     73          	GenericApp_epDesc.endPoint=GENERICAPP_ENDPOINT;
   \   000013   740A         MOV     A,#0xa
   \   000015   90....       MOV     DPTR,#GenericApp_epDesc
   \   000018   F0           MOVX    @DPTR,A
     74          	GenericApp_epDesc.task_id=&GenericApp_TaskID;
   \   000019   90....       MOV     DPTR,#(GenericApp_epDesc + 1)
   \   00001C   74..         MOV     A,#(GenericApp_TaskID & 0xff)
   \   00001E   F0           MOVX    @DPTR,A
   \   00001F   A3           INC     DPTR
   \   000020   74..         MOV     A,#((GenericApp_TaskID >> 8) & 0xff)
   \   000022   F0           MOVX    @DPTR,A
     75          	GenericApp_epDesc.simpleDesc=(SimpleDescriptionFormat_t *)&GenericApp_SimpleDesc;
   \   000023   90....       MOV     DPTR,#(GenericApp_epDesc + 3)
   \   000026   74..         MOV     A,#(GenericApp_SimpleDesc & 0xff)
   \   000028   F0           MOVX    @DPTR,A
   \   000029   A3           INC     DPTR
   \   00002A   74..         MOV     A,#((GenericApp_SimpleDesc >> 8) & 0xff)
   \   00002C   F0           MOVX    @DPTR,A
     76          	GenericApp_epDesc.latencyReq=noLatencyReqs;
   \   00002D   E4           CLR     A
   \   00002E   90....       MOV     DPTR,#(GenericApp_epDesc + 5)
   \   000031   F0           MOVX    @DPTR,A
     77          	afRegister(&GenericApp_epDesc);
   \   000032                ; Setup parameters for call to function afRegister
   \   000032   7A..         MOV     R2,#(GenericApp_epDesc & 0xff)
   \   000034   7B..         MOV     R3,#((GenericApp_epDesc >> 8) & 0xff)
   \   000036   12....       LCALL   ??afRegister?relay
     78          
     79          	uartConfig.configured		=TRUE;
   \   000039   7401         MOV     A,#0x1
   \   00003B   85..82       MOV     DPL,?XSP + 0
   \   00003E   85..83       MOV     DPH,?XSP + 1
   \   000041   F0           MOVX    @DPTR,A
     80          	uartConfig.baudRate		=HAL_UART_BR_115200;
   \   000042   12....       LCALL   ?XSTACK_DISP0_8
   \   000045   7404         MOV     A,#0x4
   \   000047   F0           MOVX    @DPTR,A
     81          	uartConfig.flowControl		=FALSE;
   \   000048   7402         MOV     A,#0x2
   \   00004A   12....       LCALL   ?XSTACK_DISP0_8
   \   00004D   E4           CLR     A
   \   00004E   F0           MOVX    @DPTR,A
     82          	uartConfig.callBackFunc		=NULL;
   \   00004F   741B         MOV     A,#0x1b
   \   000051   12....       LCALL   ?XSTACK_DISP0_8
   \   000054   E4           CLR     A
   \   000055   F0           MOVX    @DPTR,A
   \   000056   A3           INC     DPTR
   \   000057   F0           MOVX    @DPTR,A
     83          	HalUARTOpen(0,&uartConfig);
   \   000058                ; Setup parameters for call to function HalUARTOpen
   \   000058   85..82       MOV     DPL,?XSP + 0
   \   00005B   85..83       MOV     DPH,?XSP + 1
   \   00005E   AA82         MOV     R2,DPL
   \   000060   AB83         MOV     R3,DPH
   \   000062   F9           MOV     R1,A
   \   000063   12....       LCALL   ??HalUARTOpen?relay
     84          	
     85          }
   \   000066   741D         MOV     A,#0x1d
   \   000068   12....       LCALL   ?DEALLOC_XSTACK8
   \   00006B   D083         POP     DPH
   \   00006D   D082         POP     DPL
   \   00006F   02....       LJMP    ?BRET

   \                                 In  segment BANKED_CODE, align 1, keep-with-next
     86          UINT16 GenericApp_ProcessEvent(byte tadk_id,UINT16 events)
   \                     GenericApp_ProcessEvent:
     87          {
   \   000000   74F4         MOV     A,#-0xc
   \   000002   12....       LCALL   ?BANKED_ENTER_XDATA
   \   000005                ; Saved register size: 12
   \   000005                ; Auto size: 0
   \   000005   EA           MOV     A,R2
   \   000006   FE           MOV     R6,A
   \   000007   EB           MOV     A,R3
   \   000008   FF           MOV     R7,A
     88          	afIncomingMSGPacket_t *MSGpkt;
     89          	if(events&SYS_EVENT_MSG)
   \   000009   7480         MOV     A,#-0x80
   \   00000B   5F           ANL     A,R7
   \   00000C   F9           MOV     R1,A
   \   00000D   E4           CLR     A
   \   00000E   7001         JNZ     ??GenericApp_ProcessEvent_0
   \   000010   E9           MOV     A,R1
   \                     ??GenericApp_ProcessEvent_0:
   \   000011   6062         JZ      ??GenericApp_ProcessEvent_1
     90          		{
     91          			MSGpkt=(afIncomingMSGPacket_t *)osal_msg_receive(GenericApp_TaskID);
   \   000013                ; Setup parameters for call to function osal_msg_receive
   \   000013   8027         SJMP    ??GenericApp_ProcessEvent_2
     92          			while(MSGpkt)
     93          				{
     94          					switch(MSGpkt->hdr.event)
     95          						{
     96          							case AF_INCOMING_MSG_CMD:
     97          								GenericApp_MessageMSGCB(MSGpkt);
     98          								break;
     99          								case ZDO_STATE_CHANGE:
    100          									GenericApp_NwkState=(devStates_t)(MSGpkt->hdr.status);
   \                     ??GenericApp_ProcessEvent_3:
   \   000015   85..82       MOV     DPL,?V0 + 0
   \   000018   85..83       MOV     DPH,?V0 + 1
   \   00001B   A3           INC     DPTR
   \   00001C   E0           MOVX    A,@DPTR
   \   00001D   90....       MOV     DPTR,#GenericApp_NwkState
   \   000020   F0           MOVX    @DPTR,A
    101          									if(GenericApp_NwkState==DEV_ZB_COORD)
   \   000021   6409         XRL     A,#0x9
   \   000023   7010         JNZ     ??GenericApp_ProcessEvent_4
    102          										{
    103          
    104          											osal_start_timerEx(GenericApp_TaskID,SEND_TO_ALL_EVENT,5000);
   \   000025                ; Setup parameters for call to function osal_start_timerEx
   \   000025   7C88         MOV     R4,#-0x78
   \   000027   7D13         MOV     R5,#0x13
   \   000029   7A01         MOV     R2,#0x1
   \   00002B   7B00         MOV     R3,#0x0
   \   00002D   90....       MOV     DPTR,#GenericApp_TaskID
   \   000030   E0           MOVX    A,@DPTR
   \   000031   F9           MOV     R1,A
   \   000032   12....       LCALL   ??osal_start_timerEx?relay
    105          										}
    106          									break;
    107          						        default:
    108          									break;
    109          						}
    110          					osal_msg_deallocate((uint8 *) MSGpkt);
   \                     ??GenericApp_ProcessEvent_4:
   \   000035                ; Setup parameters for call to function osal_msg_deallocate
   \   000035   AA..         MOV     R2,?V0 + 0
   \   000037   AB..         MOV     R3,?V0 + 1
   \   000039   12....       LCALL   ??osal_msg_deallocate?relay
    111          					MSGpkt=(afIncomingMSGPacket_t *)osal_msg_receive(GenericApp_TaskID);
   \   00003C                ; Setup parameters for call to function osal_msg_receive
   \                     ??GenericApp_ProcessEvent_2:
   \   00003C   90....       MOV     DPTR,#GenericApp_TaskID
   \   00003F   E0           MOVX    A,@DPTR
   \   000040   F9           MOV     R1,A
   \   000041   12....       LCALL   ??osal_msg_receive?relay
   \   000044   8A..         MOV     ?V0 + 0,R2
   \   000046   8B..         MOV     ?V0 + 1,R3
   \   000048   E5..         MOV     A,?V0 + 0
   \   00004A   7002         JNZ     ??GenericApp_ProcessEvent_5
   \   00004C   E5..         MOV     A,?V0 + 1
   \                     ??GenericApp_ProcessEvent_5:
   \   00004E   601D         JZ      ??GenericApp_ProcessEvent_6
   \   000050   85..82       MOV     DPL,?V0 + 0
   \   000053   85..83       MOV     DPH,?V0 + 1
   \   000056   E0           MOVX    A,@DPTR
   \   000057   12....       LCALL   ?UC_SWITCH_SPARSE
   \                     `?<Jumptable for GenericApp_ProcessEvent>_0`:
   \   00005A   00           DB        0
   \   00005B   02           DB        2
   \   00005C   1A           DB        26
   \   00005D   ....         DW        ??GenericApp_ProcessEvent_7
   \   00005F   D1           DB        209
   \   000060   ....         DW        ??GenericApp_ProcessEvent_3
   \   000062   ....         DW        ??GenericApp_ProcessEvent_4
   \                     ??GenericApp_ProcessEvent_7:
   \   000064                ; Setup parameters for call to function GenericApp_MessageMSGCB
   \   000064   AA..         MOV     R2,?V0 + 0
   \   000066   AB..         MOV     R3,?V0 + 1
   \   000068   12....       LCALL   ??GenericApp_MessageMSGCB?relay
   \   00006B   80C8         SJMP    ??GenericApp_ProcessEvent_4
    112          				}
    113          			return (events ^SYS_EVENT_MSG);
   \                     ??GenericApp_ProcessEvent_6:
   \   00006D   EE           MOV     A,R6
   \   00006E   FA           MOV     R2,A
   \   00006F   7480         MOV     A,#-0x80
   \   000071   6F           XRL     A,R7
   \                     ??GenericApp_ProcessEvent_8:
   \   000072   FB           MOV     R3,A
   \   000073   8023         SJMP    ??GenericApp_ProcessEvent_9
    114          		
    115          		}
    116          	if(events&SEND_TO_ALL_EVENT)
   \                     ??GenericApp_ProcessEvent_1:
   \   000075   EE           MOV     A,R6
   \   000076   A2E0         MOV     C,0xE0 /* A   */.0
   \   000078   501A         JNC     ??GenericApp_ProcessEvent_10
    117          		{
    118          			GenericApp_SendTheMessage();
   \   00007A                ; Setup parameters for call to function GenericApp_SendTheMessage
   \   00007A   12....       LCALL   ??GenericApp_SendTheMessage?relay
    119          			osal_start_timerEx(GenericApp_TaskID,SEND_TO_ALL_EVENT,5000);
   \   00007D                ; Setup parameters for call to function osal_start_timerEx
   \   00007D   7C88         MOV     R4,#-0x78
   \   00007F   7D13         MOV     R5,#0x13
   \   000081   7A01         MOV     R2,#0x1
   \   000083   7B00         MOV     R3,#0x0
   \   000085   90....       MOV     DPTR,#GenericApp_TaskID
   \   000088   E0           MOVX    A,@DPTR
   \   000089   F9           MOV     R1,A
   \   00008A   12....       LCALL   ??osal_start_timerEx?relay
    120          			return (events^SEND_TO_ALL_EVENT);
   \   00008D   7401         MOV     A,#0x1
   \   00008F   6E           XRL     A,R6
   \   000090   FA           MOV     R2,A
   \   000091   EF           MOV     A,R7
   \   000092   80DE         SJMP    ??GenericApp_ProcessEvent_8
    121          		}
    122          	return 0;
   \                     ??GenericApp_ProcessEvent_10:
   \   000094   7A00         MOV     R2,#0x0
   \   000096   7B00         MOV     R3,#0x0
   \                     ??GenericApp_ProcessEvent_9:
   \   000098                REQUIRE ?Subroutine0
   \   000098                ; // Fall through to label ?Subroutine0
    123          }

   \                                 In  segment BANKED_CODE, align 1, keep-with-next
   \                     ?Subroutine0:
   \   000000   7F04         MOV     R7,#0x4
   \   000002   02....       LJMP    ?BANKED_LEAVE_XDATA

   \                                 In  segment BANKED_CODE, align 1, keep-with-next
    124          void GenericApp_MessageMSGCB(afIncomingMSGPacket_t * pkt)
   \                     GenericApp_MessageMSGCB:
    125          {
   \   000000   74F5         MOV     A,#-0xb
   \   000002   12....       LCALL   ?BANKED_ENTER_XDATA
   \   000005                ; Saved register size: 11
   \   000005                ; Auto size: 22
   \   000005   74EA         MOV     A,#-0x16
   \   000007   12....       LCALL   ?ALLOC_XSTACK8
    126          	unsigned char buffer[2]={0x0A,0x0D};
   \   00000A   85..82       MOV     DPL,?XSP + 0
   \   00000D   85..83       MOV     DPH,?XSP + 1
   \   000010   AC82         MOV     R4,DPL
   \   000012   AD83         MOV     R5,DPH
   \   000014   7583..       MOV     DPH,#((`?<Constant {10, 13}>` >> 8) & 0xff)
   \   000017   7582..       MOV     DPL,#(`?<Constant {10, 13}>` & 0xff)
   \   00001A   7402         MOV     A,#0x2
   \   00001C   12....       LCALL   ?MOVE_LONG8_XDATA_XDATA
    127                 char buf[20];
    128          	switch(pkt->clusterId)
   \   00001F   8A82         MOV     DPL,R2
   \   000021   8B83         MOV     DPH,R3
   \   000023   A3           INC     DPTR
   \   000024   A3           INC     DPTR
   \   000025   A3           INC     DPTR
   \   000026   A3           INC     DPTR
   \   000027   E0           MOVX    A,@DPTR
   \   000028   6401         XRL     A,#0x1
   \   00002A   7002         JNZ     ??GenericApp_MessageMSGCB_0
   \   00002C   A3           INC     DPTR
   \   00002D   E0           MOVX    A,@DPTR
   \                     ??GenericApp_MessageMSGCB_0:
   \   00002E   7053         JNZ     ??GenericApp_MessageMSGCB_1
    129          		{
    130          			case GENERICAPP_CLUSTERID:
    131          				osal_memcpy(buf,pkt->cmd.Data,20);
   \   000030                ; Setup parameters for call to function osal_memcpy
   \   000030   EA           MOV     A,R2
   \   000031   2421         ADD     A,#0x21
   \   000033   F582         MOV     DPL,A
   \   000035   EB           MOV     A,R3
   \   000036   3400         ADDC    A,#0x0
   \   000038   F583         MOV     DPH,A
   \   00003A   E0           MOVX    A,@DPTR
   \   00003B   F5..         MOV     ?V0 + 0,A
   \   00003D   A3           INC     DPTR
   \   00003E   E0           MOVX    A,@DPTR
   \   00003F   F5..         MOV     ?V0 + 1,A
   \   000041   75..00       MOV     ?V0 + 2,#0x0
   \   000044   78..         MOV     R0,#?V0 + 0
   \   000046   12....       LCALL   ?PUSH_XSTACK_I_THREE
   \   000049   7C14         MOV     R4,#0x14
   \   00004B   7D00         MOV     R5,#0x0
   \   00004D   7405         MOV     A,#0x5
   \   00004F   12....       LCALL   ?XSTACK_DISP0_8
   \   000052   AA82         MOV     R2,DPL
   \   000054   AB83         MOV     R3,DPH
   \   000056   12....       LCALL   ??osal_memcpy?relay
   \   000059   7403         MOV     A,#0x3
   \   00005B   12....       LCALL   ?DEALLOC_XSTACK8
    132          				HalUARTWrite(0,buf,20);
                 				               ^
Warning[Pe167]: argument of type "char *" is incompatible with parameter of
          type "unsigned char *"
   \   00005E                ; Setup parameters for call to function HalUARTWrite
   \   00005E   7C14         MOV     R4,#0x14
   \   000060   7D00         MOV     R5,#0x0
   \   000062   7402         MOV     A,#0x2
   \   000064   12....       LCALL   ?XSTACK_DISP0_8
   \   000067   AA82         MOV     R2,DPL
   \   000069   AB83         MOV     R3,DPH
   \   00006B   7900         MOV     R1,#0x0
   \   00006D   12....       LCALL   ??HalUARTWrite?relay
    133          				HalUARTWrite(0,buffer,2);
   \   000070                ; Setup parameters for call to function HalUARTWrite
   \   000070   7C02         MOV     R4,#0x2
   \   000072   7D00         MOV     R5,#0x0
   \   000074   85..82       MOV     DPL,?XSP + 0
   \   000077   85..83       MOV     DPH,?XSP + 1
   \   00007A   AA82         MOV     R2,DPL
   \   00007C   AB83         MOV     R3,DPH
   \   00007E   7900         MOV     R1,#0x0
   \   000080   12....       LCALL   ??HalUARTWrite?relay
    134          				break;
    135          		}
    136          }
   \                     ??GenericApp_MessageMSGCB_1:
   \   000083   7416         MOV     A,#0x16
   \   000085   12....       LCALL   ?DEALLOC_XSTACK8
   \   000088   7F03         MOV     R7,#0x3
   \   00008A   02....       LJMP    ?BANKED_LEAVE_XDATA

   \                                 In  segment BANKED_CODE, align 1, keep-with-next
    137          void GenericApp_SendTheMessage(void)
   \                     GenericApp_SendTheMessage:
    138          {
   \   000000   74F4         MOV     A,#-0xc
   \   000002   12....       LCALL   ?BANKED_ENTER_XDATA
   \   000005                ; Saved register size: 12
   \   000005                ; Auto size: 12
   \   000005   74F4         MOV     A,#-0xc
   \   000007   12....       LCALL   ?ALLOC_XSTACK8
    139          	unsigned char *theMessageData="Coordinator send!";
    140          	afAddrType_t my_DstAddr;
    141          	my_DstAddr.addrMode=(afAddrMode_t)AddrBroadcast;
   \   00000A   7408         MOV     A,#0x8
   \   00000C   12....       LCALL   ?XSTACK_DISP0_8
   \   00000F   740F         MOV     A,#0xf
   \   000011   F0           MOVX    @DPTR,A
    142          	my_DstAddr.endPoint=GENERICAPP_ENDPOINT;
   \   000012   7409         MOV     A,#0x9
   \   000014   12....       LCALL   ?XSTACK_DISP0_8
   \   000017   740A         MOV     A,#0xa
   \   000019   F0           MOVX    @DPTR,A
    143          	my_DstAddr.addr.shortAddr=0xFFFF;
   \   00001A   85..82       MOV     DPL,?XSP + 0
   \   00001D   85..83       MOV     DPH,?XSP + 1
   \   000020   74FF         MOV     A,#-0x1
   \   000022   F0           MOVX    @DPTR,A
   \   000023   A3           INC     DPTR
   \   000024   F0           MOVX    @DPTR,A
    144          	AF_DataRequest(&my_DstAddr,
    145          		&GenericApp_epDesc,
    146          		GENERICAPP_CLUSTERID,
    147          		osal_strlen(theMessageData)+1,
                 		            ^
Warning[Pe167]: argument of type "unsigned char *" is incompatible with
          parameter of type "char *"
    148          		theMessageData,
    149          		&GenericApp_TransID,
    150          		AF_DISCV_ROUTE,
    151          		AF_DEFAULT_RADIUS);
   \   000025   75....       MOV     ?V0 + 0,#(`?<Constant "Coordinator send!">` & 0xff)
   \   000028   75....       MOV     ?V0 + 1,#((`?<Constant "Coordinator send!">` >> 8) & 0xff)
   \   00002B                ; Setup parameters for call to function AF_DataRequest
   \   00002B   75..1E       MOV     ?V0 + 2,#0x1e
   \   00002E   78..         MOV     R0,#?V0 + 2
   \   000030   12....       LCALL   ?PUSH_XSTACK_I_ONE
   \   000033   75....       MOV     ?V0 + 2,#(GenericApp_TransID & 0xff)
   \   000036   75....       MOV     ?V0 + 3,#((GenericApp_TransID >> 8) & 0xff)
   \   000039   78..         MOV     R0,#?V0 + 2
   \   00003B   12....       LCALL   ?PUSH_XSTACK_I_TWO
   \   00003E   78..         MOV     R0,#?V0 + 0
   \   000040   12....       LCALL   ?PUSH_XSTACK_I_TWO
   \   000043                ; Setup parameters for call to function osal_strlen
   \   000043   7A..         MOV     R2,#(`?<Constant "Coordinator send!">` & 0xff)
   \   000045   7B..         MOV     R3,#((`?<Constant "Coordinator send!">` >> 8) & 0xff)
   \   000047   12....       LCALL   ??osal_strlen?relay
   \   00004A   8A..         MOV     ?V0 + 0,R2
   \   00004C   8B..         MOV     ?V0 + 1,R3
   \   00004E   7401         MOV     A,#0x1
   \   000050   25..         ADD     A,?V0 + 0
   \   000052   F5..         MOV     ?V0 + 0,A
   \   000054   E4           CLR     A
   \   000055   35..         ADDC    A,?V0 + 1
   \   000057   F5..         MOV     ?V0 + 1,A
   \   000059   78..         MOV     R0,#?V0 + 0
   \   00005B   12....       LCALL   ?PUSH_XSTACK_I_TWO
   \   00005E   75..01       MOV     ?V0 + 0,#0x1
   \   000061   75..00       MOV     ?V0 + 1,#0x0
   \   000064   78..         MOV     R0,#?V0 + 0
   \   000066   12....       LCALL   ?PUSH_XSTACK_I_TWO
   \   000069   7920         MOV     R1,#0x20
   \   00006B   7C..         MOV     R4,#(GenericApp_epDesc & 0xff)
   \   00006D   7D..         MOV     R5,#((GenericApp_epDesc >> 8) & 0xff)
   \   00006F   7409         MOV     A,#0x9
   \   000071   12....       LCALL   ?XSTACK_DISP0_8
   \   000074   AA82         MOV     R2,DPL
   \   000076   AB83         MOV     R3,DPH
   \   000078   12....       LCALL   ??AF_DataRequest?relay
   \   00007B   7409         MOV     A,#0x9
   \   00007D   12....       LCALL   ?DEALLOC_XSTACK8
    152          }
   \   000080   740C         MOV     A,#0xc
   \   000082   12....       LCALL   ?DEALLOC_XSTACK8
   \   000085   02....       LJMP    ?Subroutine0 & 0xFFFF

   \                                 In  segment BANK_RELAYS, align 1
   \                     ??GenericApp_Init?relay:
   \   000000   12....       LCALL   ?BDISPATCH
   \   000003   ......       DC24    GenericApp_Init

   \                                 In  segment BANK_RELAYS, align 1
   \                     ??GenericApp_ProcessEvent?relay:
   \   000000   12....       LCALL   ?BDISPATCH
   \   000003   ......       DC24    GenericApp_ProcessEvent

   \                                 In  segment BANK_RELAYS, align 1
   \                     ??GenericApp_MessageMSGCB?relay:
   \   000000   12....       LCALL   ?BDISPATCH
   \   000003   ......       DC24    GenericApp_MessageMSGCB

   \                                 In  segment BANK_RELAYS, align 1
   \                     ??GenericApp_SendTheMessage?relay:
   \   000000   12....       LCALL   ?BDISPATCH
   \   000003   ......       DC24    GenericApp_SendTheMessage

   \                                 In  segment XDATA_ROM_C, align 1
   \                     `?<Constant {10, 13}>`:
   \   000000   0A0D         DB 10, 13

   \                                 In  segment XDATA_ROM_C, align 1
   \                     `?<Constant "Coordinator send!">`:
   \   000000   436F6F72     DB "Coordinator send!"
   \            64696E61
   \            746F7220
   \            73656E64
   \            2100    

   Maximum stack usage in bytes:

     Function                       ISTACK PSTACK XSTACK
     --------                       ------ ------ ------
     GenericApp_Init                    3      0     29
       -> afRegister                    4      0     58
       -> HalUARTOpen                   4      0     58
     GenericApp_MessageMSGCB            2      0     48
       -> osal_memcpy                   0      0     72
       -> HalUARTWrite                  0      0     66
       -> HalUARTWrite                  0      0     66
     GenericApp_ProcessEvent            0      0     12
       -> osal_msg_receive              0      0     24
       -> osal_start_timerEx            0      0     24
       -> osal_msg_deallocate           0      0     24
       -> osal_msg_receive              0      0     24
       -> GenericApp_MessageMSGCB       0      0     24
       -> GenericApp_SendTheMessage     0      0     24
       -> osal_start_timerEx            0      0     24
     GenericApp_SendTheMessage          1      0     45
       -> osal_strlen                   0      0     58
       -> AF_DataRequest                0      0     66


   Segment part sizes:

     Function/Label                    Bytes
     --------------                    -----
     GenericApp_ClusterList               2
     GenericApp_SimpleDesc               12
     GenericApp_epDesc                    6
     GenericApp_NwkState                  1
     GenericApp_TaskID                    1
     GenericApp_TransID                   1
     uartbuf                            128
     GenericApp_Init                    114
     GenericApp_ProcessEvent            152
     ?Subroutine0                         5
     GenericApp_MessageMSGCB            141
     GenericApp_SendTheMessage          136
     ??GenericApp_Init?relay              6
     ??GenericApp_ProcessEvent?relay      6
     ??GenericApp_MessageMSGCB?relay      6
     ??GenericApp_SendTheMessage?relay    6
     ?<Constant {10, 13}>                 2
     ?<Constant "Coordinator send!">     18

 
 548 bytes in segment BANKED_CODE
  24 bytes in segment BANK_RELAYS
  34 bytes in segment XDATA_ROM_C
 137 bytes in segment XDATA_Z
 
 572 bytes of CODE  memory
  34 bytes of CONST memory
 137 bytes of XDATA memory

Errors: none
Warnings: 2
