///////////////////////////////////////////////////////////////////////////////
//                                                                            /
// IAR C/C++ Compiler V7.51A/W32 for 8051               17/Aug/2012  13:41:40 /
// Copyright 2004-2009 IAR Systems AB.                                        /
//                                                                            /
//    Core               =  plain                                             /
//    Code model         =  banked                                            /
//    Data model         =  large                                             /
//    Calling convention =  xdata reentrant                                   /
//    Constant location  =  data_rom                                          /
//    Dptr setup         =  1,16                                              /
//    Source file        =  C:\Texas Instruments\ZStack-CC2530-2.3.0-1.4.0\Pr /
//                          ojects\zstack\Samples\GenericApp\Source\Coordinat /
//                          or.c                                              /
//    Command line       =  -f "C:\Texas Instruments\ZStack-CC2530-2.3.0-1.4. /
//                          0\Projects\zstack\Samples\GenericApp\CC2530DB\..\ /
//                          ..\..\Tools\CC2530DB\f8wCoord.cfg" (-DCPU32MHZ    /
//                          -DROOT=__near_func -DMAC_CFG_APP_PENDING_QUEUE=TR /
//                          UE -DZDO_COORDINATOR -DRTR_NWK -DBLINK_LEDS) -f   /
//                          "C:\Texas Instruments\ZStack-CC2530-2.3.0-1.4.0\P /
//                          rojects\zstack\Samples\GenericApp\CC2530DB\..\..\ /
//                          ..\Tools\CC2530DB\f8wConfig.cfg" (-DSECURE=0      /
//                          -DZG_SECURE_DYNAMIC=0 -DREFLECTOR                 /
//                          -DDEFAULT_CHANLIST=0x00000800                     /
//                          -DZDAPP_CONFIG_PAN_ID=0xFFF1                      /
//                          -DNWK_START_DELAY=100 -DEXTENDED_JOINING_RANDOM_M /
//                          ASK=0x007F -DBEACON_REQUEST_DELAY=100             /
//                          -DBEACON_REQ_DELAY_MASK=0x00FF                    /
//                          -DROUTE_EXPIRY_TIME=30 -DAPSC_ACK_WAIT_DURATION_P /
//                          OLLED=3000 -DNWK_INDIRECT_MSG_TIMEOUT=7           /
//                          -DMAX_RREQ_ENTRIES=8 -DAPSC_MAX_FRAME_RETRIES=3   /
//                          -DNWK_MAX_DATA_RETRIES=2                          /
//                          -DMAX_POLL_FAILURE_RETRIES=2 -DMAX_BCAST=9        /
//                          -DAPS_MAX_GROUPS=16 -DMAX_RTG_ENTRIES=40          /
//                          -DNWK_MAX_BINDING_ENTRIES=4                       /
//                          -DMAX_BINDING_CLUSTER_IDS=4                       /
//                          "-DDEFAULT_KEY={0x01, 0x03, 0x05, 0x07, 0x09,     /
//                          0x0B, 0x0D, 0x0F, 0x00, 0x02, 0x04, 0x06, 0x08,   /
//                          0x0A, 0x0C, 0x0D}" -DMAC_MAX_FRAME_SIZE=116       /
//                          "-DCONST=const __code" -DGENERIC=__generic        /
//                          -DRFD_RCVC_ALWAYS_ON=FALSE -DPOLL_RATE=1000       /
//                          -DQUEUED_POLL_RATE=100 -DRESPONSE_POLL_RATE=100)  /
//                          -DREJOIN_POLL_RATE=440 "C:\Texas                  /
//                          Instruments\ZStack-CC2530-2.3.0-1.4.0\Projects\zs /
//                          tack\Samples\GenericApp\Source\Coordinator.c" -D  /
//                          ZTOOL_P1 -D MT_TASK -D MT_SYS_FUNC -D             /
//                          MT_ZDO_FUNC -D LCD_SUPPORTED=DEBUG -lC "C:\Texas  /
//                          Instruments\ZStack-CC2530-2.3.0-1.4.0\Projects\zs /
//                          tack\Samples\GenericApp\CC2530DB\CoordinatorEB\Li /
//                          st\" -lA "C:\Texas Instruments\ZStack-CC2530-2.3. /
//                          0-1.4.0\Projects\zstack\Samples\GenericApp\CC2530 /
//                          DB\CoordinatorEB\List\" --diag_suppress           /
//                          Pe001,Pa010 -o "C:\Texas                          /
//                          Instruments\ZStack-CC2530-2.3.0-1.4.0\Projects\zs /
//                          tack\Samples\GenericApp\CC2530DB\CoordinatorEB\Ob /
//                          j\" -e --require_prototypes --debug --core=plain  /
//                          --dptr=16,1 --data_model=large                    /
//                          --code_model=banked --calling_convention=xdata_re /
//                          entrant --place_constants=data_rom                /
//                          --nr_virtual_regs 16 -I "C:\Texas                 /
//                          Instruments\ZStack-CC2530-2.3.0-1.4.0\Projects\zs /
//                          tack\Samples\GenericApp\CC2530DB\" -I "C:\Texas   /
//                          Instruments\ZStack-CC2530-2.3.0-1.4.0\Projects\zs /
//                          tack\Samples\GenericApp\CC2530DB\..\SOURCE\" -I   /
//                          "C:\Texas Instruments\ZStack-CC2530-2.3.0-1.4.0\P /
//                          rojects\zstack\Samples\GenericApp\CC2530DB\..\..\ /
//                          ..\ZMAIN\TI2530DB\" -I "C:\Texas                  /
//                          Instruments\ZStack-CC2530-2.3.0-1.4.0\Projects\zs /
//                          tack\Samples\GenericApp\CC2530DB\..\..\..\..\..\C /
//                          OMPONENTS\MT\" -I "C:\Texas                       /
//                          Instruments\ZStack-CC2530-2.3.0-1.4.0\Projects\zs /
//                          tack\Samples\GenericApp\CC2530DB\..\..\..\..\..\C /
//                          OMPONENTS\HAL\INCLUDE\" -I "C:\Texas              /
//                          Instruments\ZStack-CC2530-2.3.0-1.4.0\Projects\zs /
//                          tack\Samples\GenericApp\CC2530DB\..\..\..\..\..\C /
//                          OMPONENTS\HAL\TARGET\CC2530EB\" -I "C:\Texas      /
//                          Instruments\ZStack-CC2530-2.3.0-1.4.0\Projects\zs /
//                          tack\Samples\GenericApp\CC2530DB\..\..\..\..\..\C /
//                          OMPONENTS\OSAL\MCU\CCSOC\" -I "C:\Texas           /
//                          Instruments\ZStack-CC2530-2.3.0-1.4.0\Projects\zs /
//                          tack\Samples\GenericApp\CC2530DB\..\..\..\..\..\C /
//                          OMPONENTS\OSAL\INCLUDE\" -I "C:\Texas             /
//                          Instruments\ZStack-CC2530-2.3.0-1.4.0\Projects\zs /
//                          tack\Samples\GenericApp\CC2530DB\..\..\..\..\..\C /
//                          OMPONENTS\STACK\AF\" -I "C:\Texas                 /
//                          Instruments\ZStack-CC2530-2.3.0-1.4.0\Projects\zs /
//                          tack\Samples\GenericApp\CC2530DB\..\..\..\..\..\C /
//                          OMPONENTS\STACK\NWK\" -I "C:\Texas                /
//                          Instruments\ZStack-CC2530-2.3.0-1.4.0\Projects\zs /
//                          tack\Samples\GenericApp\CC2530DB\..\..\..\..\..\C /
//                          OMPONENTS\STACK\SEC\" -I "C:\Texas                /
//                          Instruments\ZStack-CC2530-2.3.0-1.4.0\Projects\zs /
//                          tack\Samples\GenericApp\CC2530DB\..\..\..\..\..\C /
//                          OMPONENTS\STACK\SAPI\" -I "C:\Texas               /
//                          Instruments\ZStack-CC2530-2.3.0-1.4.0\Projects\zs /
//                          tack\Samples\GenericApp\CC2530DB\..\..\..\..\..\C /
//                          OMPONENTS\STACK\SYS\" -I "C:\Texas                /
//                          Instruments\ZStack-CC2530-2.3.0-1.4.0\Projects\zs /
//                          tack\Samples\GenericApp\CC2530DB\..\..\..\..\..\C /
//                          OMPONENTS\STACK\ZDO\" -I "C:\Texas                /
//                          Instruments\ZStack-CC2530-2.3.0-1.4.0\Projects\zs /
//                          tack\Samples\GenericApp\CC2530DB\..\..\..\..\..\C /
//                          OMPONENTS\ZMAC\F8W\" -I "C:\Texas                 /
//                          Instruments\ZStack-CC2530-2.3.0-1.4.0\Projects\zs /
//                          tack\Samples\GenericApp\CC2530DB\..\..\..\..\..\C /
//                          OMPONENTS\ZMAC\" -I "C:\Texas                     /
//                          Instruments\ZStack-CC2530-2.3.0-1.4.0\Projects\zs /
//                          tack\Samples\GenericApp\CC2530DB\..\..\..\..\..\C /
//                          OMPONENTS\SERVICES\SADDR\" -I "C:\Texas           /
//                          Instruments\ZStack-CC2530-2.3.0-1.4.0\Projects\zs /
//                          tack\Samples\GenericApp\CC2530DB\..\..\..\..\..\C /
//                          OMPONENTS\SERVICES\SDATA\" -I "C:\Texas           /
//                          Instruments\ZStack-CC2530-2.3.0-1.4.0\Projects\zs /
//                          tack\Samples\GenericApp\CC2530DB\..\..\..\..\..\C /
//                          OMPONENTS\MAC\INCLUDE\" -I "C:\Texas              /
//                          Instruments\ZStack-CC2530-2.3.0-1.4.0\Projects\zs /
//                          tack\Samples\GenericApp\CC2530DB\..\..\..\..\..\C /
//                          OMPONENTS\MAC\HIGH_LEVEL\" -I "C:\Texas           /
//                          Instruments\ZStack-CC2530-2.3.0-1.4.0\Projects\zs /
//                          tack\Samples\GenericApp\CC2530DB\..\..\..\..\..\C /
//                          OMPONENTS\MAC\LOW_LEVEL\srf04\" -I "C:\Texas      /
//                          Instruments\ZStack-CC2530-2.3.0-1.4.0\Projects\zs /
//                          tack\Samples\GenericApp\CC2530DB\..\..\..\..\..\C /
//                          OMPONENTS\MAC\LOW_LEVEL\srf04\SINGLE_CHIP\" -I    /
//                          "C:\Program Files\IAR Systems\Embedded Workbench  /
//                          5.3 Evaluation version\8051\INC\" -I "C:\Program  /
//                          Files\IAR Systems\Embedded Workbench 5.3          /
//                          Evaluation version\8051\INC\CLIB\" -Ohz           /
//    List file          =  C:\Texas Instruments\ZStack-CC2530-2.3.0-1.4.0\Pr /
//                          ojects\zstack\Samples\GenericApp\CC2530DB\Coordin /
//                          atorEB\List\Coordinator.s51                       /
//                                                                            /
//                                                                            /
///////////////////////////////////////////////////////////////////////////////

        NAME Coordinator

        RTMODEL "__calling_convention", "xdata_reentrant"
        RTMODEL "__code_model", "banked"
        RTMODEL "__core", "plain"
        RTMODEL "__data_model", "large"
        RTMODEL "__dptr_size", "16"
        RTMODEL "__extended_stack", "disabled"
        RTMODEL "__location_for_constants", "data"
        RTMODEL "__number_of_dptrs", "1"
        RTMODEL "__rt_version", "1"

        RSEG DOVERLAY:DATA:NOROOT(0)
        RSEG IOVERLAY:IDATA:NOROOT(0)
        RSEG ISTACK:IDATA:NOROOT(0)
        RSEG PSTACK:XDATA:NOROOT(0)
        RSEG XSTACK:XDATA:NOROOT(0)

        EXTERN ??GenericApp_MessageMSGCB?relay
        EXTERN ??rxCB?relay
        EXTERN ?ALLOC_XSTACK8
        EXTERN ?BANKED_ENTER_XDATA
        EXTERN ?BANKED_LEAVE_XDATA
        EXTERN ?BDISPATCH
        EXTERN ?BRET
        EXTERN ?DEALLOC_XSTACK8
        EXTERN ?MOVE_LONG8_XDATA_XDATA
        EXTERN ?PUSH_XSTACK_I_THREE
        EXTERN ?PUSH_XSTACK_I_TWO
        EXTERN ?V0
        EXTERN ?XSP
        EXTERN ?XSTACK_DISP0_8
        EXTERN __INIT_XDATA_Z

        PUBLIC ??GenericApp_Init?relay
        FUNCTION ??GenericApp_Init?relay,0203H
        PUBLIC ??GenericApp_MessageMSGCB?relay
        FUNCTION ??GenericApp_MessageMSGCB?relay,0203H
        PUBLIC ??GenericApp_ProcessEvent?relay
        FUNCTION ??GenericApp_ProcessEvent?relay,0203H
        FUNCTION ??rxCB?relay,0203H
        PUBLIC GenericApp_ClusterList
        PUBLIC GenericApp_Init
        FUNCTION GenericApp_Init,021203H
        ARGFRAME XSTACK, 0, STACK
        LOCFRAME ISTACK, 3, STACK
        LOCFRAME XSTACK, 29, STACK
        PUBLIC GenericApp_MessageMSGCB
        FUNCTION GenericApp_MessageMSGCB,021203H
        ARGFRAME XSTACK, 12, STACK
        ARGFRAME IOVERLAY, 0, STATIC
        ARGFRAME DOVERLAY, 0, STATIC
        LOCFRAME ISTACK, 2, STACK
        LOCFRAME XSTACK, 20, STACK
        PUBLIC GenericApp_ProcessEvent
        FUNCTION GenericApp_ProcessEvent,021203H
        ARGFRAME XSTACK, 0, STACK
        LOCFRAME XSTACK, 12, STACK
        PUBLIC GenericApp_SimpleDesc
        PUBLIC GenericApp_TaskID
        PUBLIC GenericApp_TransID
        PUBLIC GenericApp_epDesc
        FUNCTION rxCB,021603H
        ARGFRAME XSTACK, 0, STACK
        LOCFRAME ISTACK, 1, STACK
        LOCFRAME XSTACK, 25, STACK
        PUBLIC uartbuf
        
        CFI Names cfiNames0
        CFI StackFrame CFA_SP SP IDATA
        CFI StackFrame CFA_PSP16 PSP16 XDATA
        CFI StackFrame CFA_XSP16 XSP16 XDATA
        CFI StaticOverlayFrame CFA_IOVERLAY IOVERLAY
        CFI StaticOverlayFrame CFA_DOVERLAY DOVERLAY
        CFI Resource `PSW.CY`:1, `B.BR0`:1, `B.BR1`:1, `B.BR2`:1, `B.BR3`:1
        CFI Resource `B.BR4`:1, `B.BR5`:1, `B.BR6`:1, `B.BR7`:1, `VB.BR8`:1
        CFI Resource `VB.BR9`:1, `VB.BR10`:1, `VB.BR11`:1, `VB.BR12`:1
        CFI Resource `VB.BR13`:1, `VB.BR14`:1, `VB.BR15`:1, VB:8, B:8, A:8
        CFI Resource PSW:8, DPL0:8, DPH0:8, R0:8, R1:8, R2:8, R3:8, R4:8, R5:8
        CFI Resource R6:8, R7:8, V0:8, V1:8, V2:8, V3:8, V4:8, V5:8, V6:8, V7:8
        CFI Resource V8:8, V9:8, V10:8, V11:8, V12:8, V13:8, V14:8, V15:8, SP:8
        CFI Resource PSPH:8, PSPL:8, PSP16:16, XSPH:8, XSPL:8, XSP16:16
        CFI VirtualResource ?RET:24
        CFI Resource ?BRET_EXT:8
        CFI VirtualResource ?RET_HIGH:8, ?RET_LOW:8
        CFI ResourceParts PSP16 PSPH, PSPL
        CFI ResourceParts XSP16 XSPH, XSPL
        CFI ResourceParts ?RET ?BRET_EXT, ?RET_HIGH, ?RET_LOW
        CFI EndNames cfiNames0
        
        CFI Common cfiCommon0 Using cfiNames0
        CFI CodeAlign 1
        CFI DataAlign -1
        CFI ReturnAddress ?RET CODE
        CFI CFA_DOVERLAY Used
        CFI CFA_IOVERLAY Used
        CFI CFA_SP SP+-3
        CFI CFA_PSP16 PSP16+0
        CFI CFA_XSP16 XSP16+0
        CFI `PSW.CY` SameValue
        CFI `B.BR0` SameValue
        CFI `B.BR1` SameValue
        CFI `B.BR2` SameValue
        CFI `B.BR3` SameValue
        CFI `B.BR4` SameValue
        CFI `B.BR5` SameValue
        CFI `B.BR6` SameValue
        CFI `B.BR7` SameValue
        CFI `VB.BR8` SameValue
        CFI `VB.BR9` SameValue
        CFI `VB.BR10` SameValue
        CFI `VB.BR11` SameValue
        CFI `VB.BR12` SameValue
        CFI `VB.BR13` SameValue
        CFI `VB.BR14` SameValue
        CFI `VB.BR15` SameValue
        CFI VB SameValue
        CFI B Undefined
        CFI A Undefined
        CFI PSW SameValue
        CFI DPL0 SameValue
        CFI DPH0 SameValue
        CFI R0 Undefined
        CFI R1 Undefined
        CFI R2 Undefined
        CFI R3 Undefined
        CFI R4 Undefined
        CFI R5 Undefined
        CFI R6 SameValue
        CFI R7 SameValue
        CFI V0 SameValue
        CFI V1 SameValue
        CFI V2 SameValue
        CFI V3 SameValue
        CFI V4 SameValue
        CFI V5 SameValue
        CFI V6 SameValue
        CFI V7 SameValue
        CFI V8 SameValue
        CFI V9 SameValue
        CFI V10 SameValue
        CFI V11 SameValue
        CFI V12 SameValue
        CFI V13 SameValue
        CFI V14 SameValue
        CFI V15 SameValue
        CFI PSPH Undefined
        CFI PSPL Undefined
        CFI XSPH Undefined
        CFI XSPL Undefined
        CFI ?RET Concat
        CFI ?BRET_EXT Frame(CFA_SP, 3)
        CFI ?RET_HIGH Frame(CFA_SP, 2)
        CFI ?RET_LOW Frame(CFA_SP, 1)
        CFI EndCommon cfiCommon0
        
HalUARTRead         SYMBOL "HalUARTRead"
osal_memcmp         SYMBOL "osal_memcmp"
osal_nv_item_init   SYMBOL "osal_nv_item_init"
osal_nv_write       SYMBOL "osal_nv_write"
osal_nv_read        SYMBOL "osal_nv_read"
HalUARTWrite        SYMBOL "HalUARTWrite"
afRegister          SYMBOL "afRegister"
HalUARTOpen         SYMBOL "HalUARTOpen"
osal_msg_receive    SYMBOL "osal_msg_receive"
osal_msg_deallocate SYMBOL "osal_msg_deallocate"
osal_memcpy         SYMBOL "osal_memcpy"
??HalUARTOpen?relay SYMBOL "?relay", HalUARTOpen
??HalUARTRead?relay SYMBOL "?relay", HalUARTRead
??HalUARTWrite?relay SYMBOL "?relay", HalUARTWrite
??afRegister?relay  SYMBOL "?relay", afRegister
??osal_memcmp?relay SYMBOL "?relay", osal_memcmp
??osal_memcpy?relay SYMBOL "?relay", osal_memcpy
??osal_msg_deallocate?relay SYMBOL "?relay", osal_msg_deallocate
??osal_msg_receive?relay SYMBOL "?relay", osal_msg_receive
??osal_nv_item_init?relay SYMBOL "?relay", osal_nv_item_init
??osal_nv_read?relay SYMBOL "?relay", osal_nv_read
??osal_nv_write?relay SYMBOL "?relay", osal_nv_write
GenericApp_Init     SYMBOL "GenericApp_Init"
??GenericApp_Init?relay SYMBOL "?relay", GenericApp_Init
GenericApp_MessageMSGCB SYMBOL "GenericApp_MessageMSGCB"
??GenericApp_MessageMSGCB?relay SYMBOL "?relay", GenericApp_MessageMSGCB
GenericApp_ProcessEvent SYMBOL "GenericApp_ProcessEvent"
??GenericApp_ProcessEvent?relay SYMBOL "?relay", GenericApp_ProcessEvent

        EXTERN HalUARTRead
        FUNCTION HalUARTRead,0202H
        ARGFRAME ISTACK, 0, STACK
        ARGFRAME PSTACK, 0, STACK
        ARGFRAME XSTACK, 21, STACK
        ARGFRAME IOVERLAY, 0, STATIC
        ARGFRAME DOVERLAY, 0, STATIC
        EXTERN osal_memcmp
        FUNCTION osal_memcmp,0202H
        ARGFRAME ISTACK, 0, STACK
        ARGFRAME PSTACK, 0, STACK
        ARGFRAME XSTACK, 24, STACK
        ARGFRAME IOVERLAY, 0, STATIC
        ARGFRAME DOVERLAY, 0, STATIC
        EXTERN osal_nv_item_init
        FUNCTION osal_nv_item_init,0202H
        ARGFRAME ISTACK, 0, STACK
        ARGFRAME PSTACK, 0, STACK
        ARGFRAME XSTACK, 23, STACK
        ARGFRAME IOVERLAY, 0, STATIC
        ARGFRAME DOVERLAY, 0, STATIC
        EXTERN osal_nv_write
        FUNCTION osal_nv_write,0202H
        ARGFRAME ISTACK, 0, STACK
        ARGFRAME PSTACK, 0, STACK
        ARGFRAME XSTACK, 25, STACK
        ARGFRAME IOVERLAY, 0, STATIC
        ARGFRAME DOVERLAY, 0, STATIC
        EXTERN osal_nv_read
        FUNCTION osal_nv_read,0202H
        ARGFRAME ISTACK, 0, STACK
        ARGFRAME PSTACK, 0, STACK
        ARGFRAME XSTACK, 25, STACK
        ARGFRAME IOVERLAY, 0, STATIC
        ARGFRAME DOVERLAY, 0, STATIC
        EXTERN HalUARTWrite
        FUNCTION HalUARTWrite,0202H
        ARGFRAME ISTACK, 0, STACK
        ARGFRAME PSTACK, 0, STACK
        ARGFRAME XSTACK, 21, STACK
        ARGFRAME IOVERLAY, 0, STATIC
        ARGFRAME DOVERLAY, 0, STATIC
        EXTERN afRegister
        FUNCTION afRegister,0202H
        ARGFRAME ISTACK, 2, STACK
        ARGFRAME PSTACK, 0, STACK
        ARGFRAME XSTACK, 29, STACK
        ARGFRAME IOVERLAY, 0, STATIC
        ARGFRAME DOVERLAY, 0, STATIC
        EXTERN HalUARTOpen
        FUNCTION HalUARTOpen,0202H
        ARGFRAME ISTACK, 2, STACK
        ARGFRAME PSTACK, 0, STACK
        ARGFRAME XSTACK, 29, STACK
        ARGFRAME IOVERLAY, 0, STATIC
        ARGFRAME DOVERLAY, 0, STATIC
        EXTERN osal_msg_receive
        FUNCTION osal_msg_receive,0202H
        ARGFRAME ISTACK, 0, STACK
        ARGFRAME PSTACK, 0, STACK
        ARGFRAME XSTACK, 12, STACK
        ARGFRAME IOVERLAY, 0, STATIC
        ARGFRAME DOVERLAY, 0, STATIC
        EXTERN osal_msg_deallocate
        FUNCTION osal_msg_deallocate,0202H
        ARGFRAME ISTACK, 0, STACK
        ARGFRAME PSTACK, 0, STACK
        ARGFRAME XSTACK, 12, STACK
        ARGFRAME IOVERLAY, 0, STATIC
        ARGFRAME DOVERLAY, 0, STATIC
        EXTERN osal_memcpy
        FUNCTION osal_memcpy,0202H
        ARGFRAME ISTACK, 0, STACK
        ARGFRAME PSTACK, 0, STACK
        ARGFRAME XSTACK, 20, STACK
        ARGFRAME IOVERLAY, 0, STATIC
        ARGFRAME DOVERLAY, 0, STATIC
        EXTERN ??HalUARTOpen?relay
        FUNCTION ??HalUARTOpen?relay,00H
        EXTERN ??HalUARTRead?relay
        FUNCTION ??HalUARTRead?relay,00H
        EXTERN ??HalUARTWrite?relay
        FUNCTION ??HalUARTWrite?relay,00H
        EXTERN ??afRegister?relay
        FUNCTION ??afRegister?relay,00H
        EXTERN ??osal_memcmp?relay
        FUNCTION ??osal_memcmp?relay,00H
        EXTERN ??osal_memcpy?relay
        FUNCTION ??osal_memcpy?relay,00H
        EXTERN ??osal_msg_deallocate?relay
        FUNCTION ??osal_msg_deallocate?relay,00H
        EXTERN ??osal_msg_receive?relay
        FUNCTION ??osal_msg_receive?relay,00H
        EXTERN ??osal_nv_item_init?relay
        FUNCTION ??osal_nv_item_init?relay,00H
        EXTERN ??osal_nv_read?relay
        FUNCTION ??osal_nv_read?relay,00H
        EXTERN ??osal_nv_write?relay
        FUNCTION ??osal_nv_write?relay,00H

// C:\Texas Instruments\ZStack-CC2530-2.3.0-1.4.0\Projects\zstack\Samples\GenericApp\Source\Coordinator.c
//    1 #include "OSAL.h"
//    2 #include "AF.h"
//    3 #include "ZDApp.h"
//    4 #include "ZDObject.h"
//    5 #include "ZDProfile.h"
//    6 #include <string.h>
//    7 
//    8 #include "Coordinator.h"
//    9 
//   10 #include "DebugTrace.h"
//   11 #if !defined(WIN32)
//   12 #include "OnBoard.h"
//   13 #endif
//   14 
//   15 #include "hal_led.h"
//   16 #include "hal_lcd.h"
//   17 #include "hal_key.h"
//   18 #include "hal_uart.h"
//   19 #include "OSAL_Nv.h"
//   20 

        RSEG XDATA_ROM_C:CONST:REORDER:NOROOT(0)
        DATA
//   21 const cId_t GenericApp_ClusterList[GENERICAPP_MAX_CLUSTERS]={
GenericApp_ClusterList:
        DW 1
//   22 GENERICAPP_CLUSTERID  \ 
//   23  };

        RSEG XDATA_ROM_C:CONST:REORDER:NOROOT(0)
        DATA
//   24 const SimpleDescriptionFormat_t GenericApp_SimpleDesc=
GenericApp_SimpleDesc:
        DB 10
        DW 3844, 1
        DB 0, 1
        DW GenericApp_ClusterList
        DB 0
        DW 0H
//   25 {
//   26   GENERICAPP_ENDPOINT,
//   27   GENERICAPP_PROFID,
//   28   GENERICAPP_DEVICEID,
//   29   GENERICAPP_DEVICE_VERSION,
//   30   GENERICAPP_FLAGS,
//   31   GENERICAPP_MAX_CLUSTERS,
//   32   (cId_t *)GenericApp_ClusterList,
//   33   0,
//   34   (cId_t *)NULL
//   35 };

        RSEG XDATA_Z:XDATA:NOROOT(0)
//   36 endPointDesc_t GenericApp_epDesc;
GenericApp_epDesc:
        DS 6
        REQUIRE __INIT_XDATA_Z

        RSEG XDATA_Z:XDATA:NOROOT(0)
//   37 byte GenericApp_TaskID;
GenericApp_TaskID:
        DS 1
        REQUIRE __INIT_XDATA_Z

        RSEG XDATA_Z:XDATA:NOROOT(0)
//   38 byte GenericApp_TransID;
GenericApp_TransID:
        DS 1
        REQUIRE __INIT_XDATA_Z

        RSEG XDATA_Z:XDATA:NOROOT(0)
//   39 unsigned char uartbuf[128];
uartbuf:
        DS 128
        REQUIRE __INIT_XDATA_Z
//   40 
//   41 void GenericApp_MessageMSGCB(afIncomingMSGPacket_t *pckt);
//   42 void GenericApp_SendTheMessage(void);
//   43 
//   44 static void rxCB(uint8 port, uint8 event);

        RSEG BANKED_CODE:CODE:NOROOT(0)
//   45 static void rxCB(uint8 port, uint8 event)
rxCB:
        CFI Block cfiBlock0 Using cfiCommon0
        CFI Function rxCB
//   46 {
        FUNCALL rxCB, HalUARTRead
        LOCFRAME ISTACK, 0, STACK
        LOCFRAME PSTACK, 0, STACK
        LOCFRAME XSTACK, 21, STACK
        LOCFRAME IOVERLAY, 0, STATIC
        LOCFRAME DOVERLAY, 0, STATIC
        ARGFRAME ISTACK, 0, STACK
        ARGFRAME PSTACK, 0, STACK
        ARGFRAME XSTACK, 21, STACK
        ARGFRAME IOVERLAY, 0, STATIC
        ARGFRAME DOVERLAY, 0, STATIC
        FUNCALL rxCB, osal_memcmp
        LOCFRAME ISTACK, 0, STACK
        LOCFRAME PSTACK, 0, STACK
        LOCFRAME XSTACK, 24, STACK
        LOCFRAME IOVERLAY, 0, STATIC
        LOCFRAME DOVERLAY, 0, STATIC
        ARGFRAME ISTACK, 0, STACK
        ARGFRAME PSTACK, 0, STACK
        ARGFRAME XSTACK, 24, STACK
        ARGFRAME IOVERLAY, 0, STATIC
        ARGFRAME DOVERLAY, 0, STATIC
        FUNCALL rxCB, osal_nv_item_init
        LOCFRAME ISTACK, 0, STACK
        LOCFRAME PSTACK, 0, STACK
        LOCFRAME XSTACK, 23, STACK
        LOCFRAME IOVERLAY, 0, STATIC
        LOCFRAME DOVERLAY, 0, STATIC
        ARGFRAME ISTACK, 0, STACK
        ARGFRAME PSTACK, 0, STACK
        ARGFRAME XSTACK, 23, STACK
        ARGFRAME IOVERLAY, 0, STATIC
        ARGFRAME DOVERLAY, 0, STATIC
        FUNCALL rxCB, osal_nv_write
        LOCFRAME ISTACK, 0, STACK
        LOCFRAME PSTACK, 0, STACK
        LOCFRAME XSTACK, 25, STACK
        LOCFRAME IOVERLAY, 0, STATIC
        LOCFRAME DOVERLAY, 0, STATIC
        ARGFRAME ISTACK, 0, STACK
        ARGFRAME PSTACK, 0, STACK
        ARGFRAME XSTACK, 25, STACK
        ARGFRAME IOVERLAY, 0, STATIC
        ARGFRAME DOVERLAY, 0, STATIC
        FUNCALL rxCB, osal_nv_read
        LOCFRAME ISTACK, 0, STACK
        LOCFRAME PSTACK, 0, STACK
        LOCFRAME XSTACK, 25, STACK
        LOCFRAME IOVERLAY, 0, STATIC
        LOCFRAME DOVERLAY, 0, STATIC
        ARGFRAME ISTACK, 0, STACK
        ARGFRAME PSTACK, 0, STACK
        ARGFRAME XSTACK, 25, STACK
        ARGFRAME IOVERLAY, 0, STATIC
        ARGFRAME DOVERLAY, 0, STATIC
        FUNCALL rxCB, HalUARTWrite
        LOCFRAME ISTACK, 0, STACK
        LOCFRAME PSTACK, 0, STACK
        LOCFRAME XSTACK, 21, STACK
        LOCFRAME IOVERLAY, 0, STATIC
        LOCFRAME DOVERLAY, 0, STATIC
        ARGFRAME ISTACK, 0, STACK
        ARGFRAME PSTACK, 0, STACK
        ARGFRAME XSTACK, 21, STACK
        ARGFRAME IOVERLAY, 0, STATIC
        ARGFRAME DOVERLAY, 0, STATIC
        MOV     A,#-0xb
        LCALL   ?BANKED_ENTER_XDATA
        CFI DPH0 load(1, XDATA, add(CFA_XSP16, literal(-1)))
        CFI DPL0 load(1, XDATA, add(CFA_XSP16, literal(-2)))
        CFI ?BRET_EXT load(1, XDATA, add(CFA_XSP16, literal(-3)))
        CFI ?RET_HIGH load(1, XDATA, add(CFA_XSP16, literal(-4)))
        CFI ?RET_LOW load(1, XDATA, add(CFA_XSP16, literal(-5)))
        CFI R7 load(1, XDATA, add(CFA_XSP16, literal(-6)))
        CFI V2 load(1, XDATA, add(CFA_XSP16, literal(-7)))
        CFI V1 load(1, XDATA, add(CFA_XSP16, literal(-8)))
        CFI V0 load(1, XDATA, add(CFA_XSP16, literal(-9)))
        CFI VB load(1, XDATA, add(CFA_XSP16, literal(-10)))
        CFI R6 load(1, XDATA, add(CFA_XSP16, literal(-11)))
        CFI CFA_SP SP+0
        CFI CFA_XSP16 add(XSP16, 11)
        ; Saved register size: 11
        ; Auto size: 10
        MOV     A,#-0xa
        LCALL   ?ALLOC_XSTACK8
        CFI CFA_XSP16 add(XSP16, 21)
//   47 	uint8 value_read;
//   48 	uint8 value=18;
        MOV     A,#0x1
        LCALL   ?XSTACK_DISP0_8
        MOV     A,#0x12
        MOVX    @DPTR,A
//   49 	uint8 uartbuf[2];
//   50 	uint8 cmd[6];
//   51 	HalUARTRead(0,cmd,6);
        ; Setup parameters for call to function HalUARTRead
        MOV     R4,#0x6
        MOV     R5,#0x0
        MOV     A,#0x4
        LCALL   ?XSTACK_DISP0_8
        MOV     R2,DPL
        MOV     R3,DPH
        MOV     R1,#0x0
        LCALL   ??HalUARTRead?relay
//   52 	if(osal_memcmp(cmd,"nvread",6))
        ; Setup parameters for call to function osal_memcmp
        MOV     ?V0 + 0,#(`?<Constant "nvread">` & 0xff)
        MOV     ?V0 + 1,#((`?<Constant "nvread">` >> 8) & 0xff)
        MOV     ?V0 + 2,#0x0
        MOV     R0,#?V0 + 0
        LCALL   ?PUSH_XSTACK_I_THREE
        CFI CFA_XSP16 add(XSP16, 24)
        MOV     R4,#0x6
        MOV     R5,#0x0
        MOV     A,#0x7
        LCALL   ?XSTACK_DISP0_8
        MOV     R1,DPL
        MOV     R2,DPH
        MOV     R3,#0x0
        LCALL   ??osal_memcmp?relay
        MOV     A,#0x3
        LCALL   ?DEALLOC_XSTACK8
        CFI CFA_XSP16 add(XSP16, 21)
        MOV     A,R1
        JNZ     $+5
        LJMP    ??rxCB_0 & 0xFFFF
//   53 		{
//   54 			osal_nv_item_init(TEST_NV,1,NULL);
        ; Setup parameters for call to function osal_nv_item_init
        MOV     ?V0 + 0,#0x0
        MOV     ?V0 + 1,#0x0
        MOV     R0,#?V0 + 0
        LCALL   ?PUSH_XSTACK_I_TWO
        CFI CFA_XSP16 add(XSP16, 23)
        MOV     R4,#0x1
        MOV     R5,#0x0
        MOV     R2,#0x1
        MOV     R3,#0x2
        LCALL   ??osal_nv_item_init?relay
        MOV     A,#0x2
        LCALL   ?DEALLOC_XSTACK8
        CFI CFA_XSP16 add(XSP16, 21)
//   55 			osal_nv_write(TEST_NV,0,1,&value);
        ; Setup parameters for call to function osal_nv_write
        MOV     A,#0x1
        LCALL   ?XSTACK_DISP0_8
        MOV     ?V0 + 0,DPL
        MOV     ?V0 + 1,DPH
        MOV     R0,#?V0 + 0
        LCALL   ?PUSH_XSTACK_I_TWO
        CFI CFA_XSP16 add(XSP16, 23)
        MOV     ?V0 + 0,#0x1
        MOV     ?V0 + 1,#0x0
        MOV     R0,#?V0 + 0
        LCALL   ?PUSH_XSTACK_I_TWO
        CFI CFA_XSP16 add(XSP16, 25)
        MOV     R4,#0x0
        MOV     R5,#0x0
        MOV     R2,#0x1
        MOV     R3,#0x2
        LCALL   ??osal_nv_write?relay
        MOV     A,#0x4
        LCALL   ?DEALLOC_XSTACK8
        CFI CFA_XSP16 add(XSP16, 21)
//   56 			osal_nv_read(TEST_NV,0,1,&value_read);
        ; Setup parameters for call to function osal_nv_read
        MOV     DPL,?XSP + 0
        MOV     DPH,?XSP + 1
        MOV     ?V0 + 0,DPL
        MOV     ?V0 + 1,DPH
        MOV     R0,#?V0 + 0
        LCALL   ?PUSH_XSTACK_I_TWO
        CFI CFA_XSP16 add(XSP16, 23)
        MOV     ?V0 + 0,#0x1
        MOV     ?V0 + 1,#0x0
        MOV     R0,#?V0 + 0
        LCALL   ?PUSH_XSTACK_I_TWO
        CFI CFA_XSP16 add(XSP16, 25)
        MOV     R4,#0x0
        MOV     R5,#0x0
        MOV     R2,#0x1
        MOV     R3,#0x2
        LCALL   ??osal_nv_read?relay
        MOV     A,#0x4
        LCALL   ?DEALLOC_XSTACK8
        CFI CFA_XSP16 add(XSP16, 21)
//   57 			uartbuf[0]=value_read/10+'0';
        MOV     B,#0xa
        MOV     DPL,?XSP + 0
        MOV     DPH,?XSP + 1
        MOVX    A,@DPTR
        DIV     AB
        ADD     A,#0x30
        PUSH    A
        CFI CFA_SP SP+-1
        MOV     A,#0x2
        LCALL   ?XSTACK_DISP0_8
        POP     A
        CFI CFA_SP SP+0
        MOVX    @DPTR,A
//   58 			uartbuf[1]=value_read%10+'0';
        MOV     DPL,?XSP + 0
        MOV     DPH,?XSP + 1
        MOVX    A,@DPTR
        MOV     B,#0xa
        DIV     AB
        MOV     A,B
        ADD     A,#0x30
        PUSH    A
        CFI CFA_SP SP+-1
        MOV     A,#0x3
        LCALL   ?XSTACK_DISP0_8
        POP     A
        CFI CFA_SP SP+0
        MOVX    @DPTR,A
//   59 			HalUARTWrite(0,uartbuf,2);
        ; Setup parameters for call to function HalUARTWrite
        MOV     R4,#0x2
        MOV     R5,#0x0
        MOV     A,R4
        LCALL   ?XSTACK_DISP0_8
        MOV     R2,DPL
        MOV     R3,DPH
        MOV     R1,#0x0
        LCALL   ??HalUARTWrite?relay
//   60 		}
//   61 }
??rxCB_0:
        MOV     A,#0xa
        CFI EndBlock cfiBlock0
        REQUIRE ?Subroutine0
        ; // Fall through to label ?Subroutine0

        RSEG BANKED_CODE:CODE:NOROOT(0)
?Subroutine0:
        CFI Block cfiBlock1 Using cfiCommon0
        CFI NoFunction
        CFI CFA_SP SP+0
        CFI CFA_XSP16 add(XSP16, 21)
        CFI VB load(1, XDATA, add(CFA_XSP16, literal(-10)))
        CFI DPL0 load(1, XDATA, add(CFA_XSP16, literal(-2)))
        CFI DPH0 load(1, XDATA, add(CFA_XSP16, literal(-1)))
        CFI R6 load(1, XDATA, add(CFA_XSP16, literal(-11)))
        CFI R7 load(1, XDATA, add(CFA_XSP16, literal(-6)))
        CFI V0 load(1, XDATA, add(CFA_XSP16, literal(-9)))
        CFI V1 load(1, XDATA, add(CFA_XSP16, literal(-8)))
        CFI V2 load(1, XDATA, add(CFA_XSP16, literal(-7)))
        CFI ?BRET_EXT load(1, XDATA, add(CFA_XSP16, literal(-3)))
        CFI ?RET_HIGH load(1, XDATA, add(CFA_XSP16, literal(-4)))
        CFI ?RET_LOW load(1, XDATA, add(CFA_XSP16, literal(-5)))
        CFI Invalid
        LCALL   ?DEALLOC_XSTACK8
        CFI CFA_XSP16 add(XSP16, 11)
        CFI Valid
        MOV     R7,#0x3
        LJMP    ?BANKED_LEAVE_XDATA
        CFI EndBlock cfiBlock1
//   62 

        RSEG BANKED_CODE:CODE:NOROOT(0)
//   63 void GenericApp_Init(byte task_id)
GenericApp_Init:
        CFI Block cfiBlock2 Using cfiCommon0
        CFI Function GenericApp_Init
//   64 {
        FUNCALL GenericApp_Init, afRegister
        LOCFRAME ISTACK, 2, STACK
        LOCFRAME PSTACK, 0, STACK
        LOCFRAME XSTACK, 29, STACK
        LOCFRAME IOVERLAY, 0, STATIC
        LOCFRAME DOVERLAY, 0, STATIC
        ARGFRAME ISTACK, 2, STACK
        ARGFRAME PSTACK, 0, STACK
        ARGFRAME XSTACK, 29, STACK
        ARGFRAME IOVERLAY, 0, STATIC
        ARGFRAME DOVERLAY, 0, STATIC
        FUNCALL GenericApp_Init, HalUARTOpen
        LOCFRAME ISTACK, 2, STACK
        LOCFRAME PSTACK, 0, STACK
        LOCFRAME XSTACK, 29, STACK
        LOCFRAME IOVERLAY, 0, STATIC
        LOCFRAME DOVERLAY, 0, STATIC
        ARGFRAME ISTACK, 2, STACK
        ARGFRAME PSTACK, 0, STACK
        ARGFRAME XSTACK, 29, STACK
        ARGFRAME IOVERLAY, 0, STATIC
        ARGFRAME DOVERLAY, 0, STATIC
        PUSH    DPL
        CFI DPL0 Frame(CFA_SP, 4)
        CFI CFA_SP SP+-4
        PUSH    DPH
        CFI DPH0 Frame(CFA_SP, 5)
        CFI CFA_SP SP+-5
        ; Saved register size: 2
        ; Auto size: 29
        MOV     A,#-0x1d
        LCALL   ?ALLOC_XSTACK8
        CFI CFA_XSP16 add(XSP16, 29)
//   65 	halUARTCfg_t uartConfig;
//   66 	
//   67 	GenericApp_TaskID		=task_id;
        MOV     A,R1
        MOV     DPTR,#GenericApp_TaskID
        MOVX    @DPTR,A
//   68 	GenericApp_TransID		=0;
        CLR     A
        MOV     DPTR,#GenericApp_TransID
        MOVX    @DPTR,A
//   69 	GenericApp_epDesc.endPoint=GENERICAPP_ENDPOINT;
        MOV     A,#0xa
        MOV     DPTR,#GenericApp_epDesc
        MOVX    @DPTR,A
//   70 	GenericApp_epDesc.task_id=&GenericApp_TaskID;
        MOV     DPTR,#(GenericApp_epDesc + 1)
        MOV     A,#(GenericApp_TaskID & 0xff)
        MOVX    @DPTR,A
        INC     DPTR
        MOV     A,#((GenericApp_TaskID >> 8) & 0xff)
        MOVX    @DPTR,A
//   71 	GenericApp_epDesc.simpleDesc=(SimpleDescriptionFormat_t *)&GenericApp_SimpleDesc;
        MOV     DPTR,#(GenericApp_epDesc + 3)
        MOV     A,#(GenericApp_SimpleDesc & 0xff)
        MOVX    @DPTR,A
        INC     DPTR
        MOV     A,#((GenericApp_SimpleDesc >> 8) & 0xff)
        MOVX    @DPTR,A
//   72 	GenericApp_epDesc.latencyReq=noLatencyReqs;
        CLR     A
        MOV     DPTR,#(GenericApp_epDesc + 5)
        MOVX    @DPTR,A
//   73 	afRegister(&GenericApp_epDesc);
        ; Setup parameters for call to function afRegister
        MOV     R2,#(GenericApp_epDesc & 0xff)
        MOV     R3,#((GenericApp_epDesc >> 8) & 0xff)
        LCALL   ??afRegister?relay
//   74 
//   75 	uartConfig.configured		=TRUE;
        MOV     A,#0x1
        MOV     DPL,?XSP + 0
        MOV     DPH,?XSP + 1
        MOVX    @DPTR,A
//   76 	uartConfig.baudRate		=HAL_UART_BR_115200;
        LCALL   ?XSTACK_DISP0_8
        MOV     A,#0x4
        MOVX    @DPTR,A
//   77 	uartConfig.flowControl		=FALSE;
        MOV     A,#0x2
        LCALL   ?XSTACK_DISP0_8
        CLR     A
        MOVX    @DPTR,A
//   78 	uartConfig.callBackFunc		=rxCB;
        MOV     A,#0x1b
        LCALL   ?XSTACK_DISP0_8
        MOV     A,#(??rxCB?relay & 0xff)
        MOVX    @DPTR,A
        INC     DPTR
        MOV     A,#((??rxCB?relay >> 8) & 0xff)
        MOVX    @DPTR,A
//   79 	HalUARTOpen(0,&uartConfig);
        ; Setup parameters for call to function HalUARTOpen
        MOV     DPL,?XSP + 0
        MOV     DPH,?XSP + 1
        MOV     R2,DPL
        MOV     R3,DPH
        MOV     R1,#0x0
        LCALL   ??HalUARTOpen?relay
//   80 	
//   81 }
        MOV     A,#0x1d
        LCALL   ?DEALLOC_XSTACK8
        CFI CFA_XSP16 XSP16+0
        POP     DPH
        CFI DPH0 SameValue
        CFI CFA_SP SP+-4
        POP     DPL
        CFI DPL0 SameValue
        CFI CFA_SP SP+-3
        LJMP    ?BRET
        CFI EndBlock cfiBlock2

        RSEG BANKED_CODE:CODE:NOROOT(0)
//   82 UINT16 GenericApp_ProcessEvent(byte tadk_id,UINT16 events)
GenericApp_ProcessEvent:
        CFI Block cfiBlock3 Using cfiCommon0
        CFI Function GenericApp_ProcessEvent
//   83 {
        FUNCALL GenericApp_ProcessEvent, osal_msg_receive
        LOCFRAME ISTACK, 0, STACK
        LOCFRAME PSTACK, 0, STACK
        LOCFRAME XSTACK, 12, STACK
        LOCFRAME IOVERLAY, 0, STATIC
        LOCFRAME DOVERLAY, 0, STATIC
        ARGFRAME ISTACK, 0, STACK
        ARGFRAME PSTACK, 0, STACK
        ARGFRAME XSTACK, 12, STACK
        ARGFRAME IOVERLAY, 0, STATIC
        ARGFRAME DOVERLAY, 0, STATIC
        FUNCALL GenericApp_ProcessEvent, GenericApp_MessageMSGCB
        LOCFRAME ISTACK, 0, STACK
        LOCFRAME PSTACK, 0, STACK
        LOCFRAME XSTACK, 12, STACK
        LOCFRAME IOVERLAY, 0, STATIC
        LOCFRAME DOVERLAY, 0, STATIC
        ARGFRAME ISTACK, 0, STACK
        ARGFRAME PSTACK, 0, STACK
        ARGFRAME XSTACK, 12, STACK
        ARGFRAME IOVERLAY, 0, STATIC
        ARGFRAME DOVERLAY, 0, STATIC
        FUNCALL GenericApp_ProcessEvent, osal_msg_deallocate
        LOCFRAME ISTACK, 0, STACK
        LOCFRAME PSTACK, 0, STACK
        LOCFRAME XSTACK, 12, STACK
        LOCFRAME IOVERLAY, 0, STATIC
        LOCFRAME DOVERLAY, 0, STATIC
        ARGFRAME ISTACK, 0, STACK
        ARGFRAME PSTACK, 0, STACK
        ARGFRAME XSTACK, 12, STACK
        ARGFRAME IOVERLAY, 0, STATIC
        ARGFRAME DOVERLAY, 0, STATIC
        FUNCALL GenericApp_ProcessEvent, osal_msg_receive
        LOCFRAME ISTACK, 0, STACK
        LOCFRAME PSTACK, 0, STACK
        LOCFRAME XSTACK, 12, STACK
        LOCFRAME IOVERLAY, 0, STATIC
        LOCFRAME DOVERLAY, 0, STATIC
        ARGFRAME ISTACK, 0, STACK
        ARGFRAME PSTACK, 0, STACK
        ARGFRAME XSTACK, 12, STACK
        ARGFRAME IOVERLAY, 0, STATIC
        ARGFRAME DOVERLAY, 0, STATIC
        MOV     A,#-0xc
        LCALL   ?BANKED_ENTER_XDATA
        CFI DPH0 load(1, XDATA, add(CFA_XSP16, literal(-1)))
        CFI DPL0 load(1, XDATA, add(CFA_XSP16, literal(-2)))
        CFI ?BRET_EXT load(1, XDATA, add(CFA_XSP16, literal(-3)))
        CFI ?RET_HIGH load(1, XDATA, add(CFA_XSP16, literal(-4)))
        CFI ?RET_LOW load(1, XDATA, add(CFA_XSP16, literal(-5)))
        CFI R7 load(1, XDATA, add(CFA_XSP16, literal(-6)))
        CFI V3 load(1, XDATA, add(CFA_XSP16, literal(-7)))
        CFI V2 load(1, XDATA, add(CFA_XSP16, literal(-8)))
        CFI V1 load(1, XDATA, add(CFA_XSP16, literal(-9)))
        CFI V0 load(1, XDATA, add(CFA_XSP16, literal(-10)))
        CFI VB load(1, XDATA, add(CFA_XSP16, literal(-11)))
        CFI R6 load(1, XDATA, add(CFA_XSP16, literal(-12)))
        CFI CFA_SP SP+0
        CFI CFA_XSP16 add(XSP16, 12)
        ; Saved register size: 12
        ; Auto size: 0
        MOV     ?V0 + 0,R2
        MOV     ?V0 + 1,R3
//   84 	afIncomingMSGPacket_t *MSGpkt;
//   85 	if(events&SYS_EVENT_MSG)
        MOV     A,#-0x80
        ANL     A,?V0 + 1
        MOV     R1,A
        CLR     A
        JNZ     ??GenericApp_ProcessEvent_0
        MOV     A,R1
??GenericApp_ProcessEvent_0:
        JZ      ??GenericApp_ProcessEvent_1
//   86 		{
//   87 			MSGpkt=(afIncomingMSGPacket_t *)osal_msg_receive(GenericApp_TaskID);
        ; Setup parameters for call to function osal_msg_receive
        SJMP    ??GenericApp_ProcessEvent_2
//   88 			while(MSGpkt)
//   89 				{
//   90 					switch(MSGpkt->hdr.event)
??GenericApp_ProcessEvent_3:
        MOV     DPL,R6
        MOV     DPH,R7
        MOVX    A,@DPTR
        XRL     A,#0x1a
        JNZ     ??GenericApp_ProcessEvent_4
//   91 						{
//   92 							case AF_INCOMING_MSG_CMD:
//   93 								GenericApp_MessageMSGCB(MSGpkt);
        ; Setup parameters for call to function GenericApp_MessageMSGCB
        MOV     A,R6
        MOV     R2,A
        MOV     A,R7
        MOV     R3,A
        LCALL   ??GenericApp_MessageMSGCB?relay
//   94 								break;
//   95 						        default:
//   96 									break;
//   97 						}
//   98 					osal_msg_deallocate((uint8 *) MSGpkt);
??GenericApp_ProcessEvent_4:
        ; Setup parameters for call to function osal_msg_deallocate
        MOV     A,R6
        MOV     R2,A
        MOV     A,R7
        MOV     R3,A
        LCALL   ??osal_msg_deallocate?relay
//   99 					MSGpkt=(afIncomingMSGPacket_t *)osal_msg_receive(GenericApp_TaskID);
        ; Setup parameters for call to function osal_msg_receive
??GenericApp_ProcessEvent_2:
        MOV     DPTR,#GenericApp_TaskID
        MOVX    A,@DPTR
        MOV     R1,A
        LCALL   ??osal_msg_receive?relay
        MOV     ?V0 + 2,R2
        MOV     ?V0 + 3,R3
        MOV     R6,?V0 + 2
        MOV     R7,?V0 + 3
//  100 				}
        MOV     A,R6
        JNZ     ??GenericApp_ProcessEvent_5
        MOV     A,R7
??GenericApp_ProcessEvent_5:
        JNZ     ??GenericApp_ProcessEvent_3
//  101 			return (events ^SYS_EVENT_MSG);
        MOV     R2,?V0 + 0
        MOV     A,#-0x80
        XRL     A,?V0 + 1
        MOV     R3,A
        SJMP    ??GenericApp_ProcessEvent_6
//  102 		
//  103 		}
//  104 	return 0;
??GenericApp_ProcessEvent_1:
        MOV     R2,#0x0
        MOV     R3,#0x0
??GenericApp_ProcessEvent_6:
        MOV     R7,#0x4
        LJMP    ?BANKED_LEAVE_XDATA
        CFI EndBlock cfiBlock3
//  105 }

        RSEG BANKED_CODE:CODE:NOROOT(0)
//  106 void GenericApp_MessageMSGCB(afIncomingMSGPacket_t * pkt)
GenericApp_MessageMSGCB:
        CFI Block cfiBlock4 Using cfiCommon0
        CFI Function GenericApp_MessageMSGCB
//  107 {
        FUNCALL GenericApp_MessageMSGCB, osal_memcpy
        LOCFRAME ISTACK, 0, STACK
        LOCFRAME PSTACK, 0, STACK
        LOCFRAME XSTACK, 20, STACK
        LOCFRAME IOVERLAY, 0, STATIC
        LOCFRAME DOVERLAY, 0, STATIC
        ARGFRAME ISTACK, 0, STACK
        ARGFRAME PSTACK, 0, STACK
        ARGFRAME XSTACK, 20, STACK
        ARGFRAME IOVERLAY, 0, STATIC
        ARGFRAME DOVERLAY, 0, STATIC
        FUNCALL GenericApp_MessageMSGCB, HalUARTWrite
        LOCFRAME ISTACK, 0, STACK
        LOCFRAME PSTACK, 0, STACK
        LOCFRAME XSTACK, 17, STACK
        LOCFRAME IOVERLAY, 0, STATIC
        LOCFRAME DOVERLAY, 0, STATIC
        ARGFRAME ISTACK, 0, STACK
        ARGFRAME PSTACK, 0, STACK
        ARGFRAME XSTACK, 17, STACK
        ARGFRAME IOVERLAY, 0, STATIC
        ARGFRAME DOVERLAY, 0, STATIC
        FUNCALL GenericApp_MessageMSGCB, HalUARTWrite
        LOCFRAME ISTACK, 0, STACK
        LOCFRAME PSTACK, 0, STACK
        LOCFRAME XSTACK, 17, STACK
        LOCFRAME IOVERLAY, 0, STATIC
        LOCFRAME DOVERLAY, 0, STATIC
        ARGFRAME ISTACK, 0, STACK
        ARGFRAME PSTACK, 0, STACK
        ARGFRAME XSTACK, 17, STACK
        ARGFRAME IOVERLAY, 0, STATIC
        ARGFRAME DOVERLAY, 0, STATIC
        MOV     A,#-0xb
        LCALL   ?BANKED_ENTER_XDATA
        CFI DPH0 load(1, XDATA, add(CFA_XSP16, literal(-1)))
        CFI DPL0 load(1, XDATA, add(CFA_XSP16, literal(-2)))
        CFI ?BRET_EXT load(1, XDATA, add(CFA_XSP16, literal(-3)))
        CFI ?RET_HIGH load(1, XDATA, add(CFA_XSP16, literal(-4)))
        CFI ?RET_LOW load(1, XDATA, add(CFA_XSP16, literal(-5)))
        CFI R7 load(1, XDATA, add(CFA_XSP16, literal(-6)))
        CFI V2 load(1, XDATA, add(CFA_XSP16, literal(-7)))
        CFI V1 load(1, XDATA, add(CFA_XSP16, literal(-8)))
        CFI V0 load(1, XDATA, add(CFA_XSP16, literal(-9)))
        CFI VB load(1, XDATA, add(CFA_XSP16, literal(-10)))
        CFI R6 load(1, XDATA, add(CFA_XSP16, literal(-11)))
        CFI CFA_SP SP+0
        CFI CFA_XSP16 add(XSP16, 11)
        ; Saved register size: 11
        ; Auto size: 6
        MOV     A,#-0x6
        LCALL   ?ALLOC_XSTACK8
        CFI CFA_XSP16 add(XSP16, 17)
//  108 	unsigned char buffer[2]={0x0A,0x0D};
        MOV     DPL,?XSP + 0
        MOV     DPH,?XSP + 1
        MOV     R4,DPL
        MOV     R5,DPH
        MOV     DPH,#((`?<Constant {10, 13}>` >> 8) & 0xff)
        MOV     DPL,#(`?<Constant {10, 13}>` & 0xff)
        MOV     A,#0x2
        LCALL   ?MOVE_LONG8_XDATA_XDATA
//  109 	TEMPRETURE  tempreture;
//  110 	switch(pkt->clusterId)
        MOV     DPL,R2
        MOV     DPH,R3
        INC     DPTR
        INC     DPTR
        INC     DPTR
        INC     DPTR
        MOVX    A,@DPTR
        XRL     A,#0x1
        JNZ     ??GenericApp_MessageMSGCB_0
        INC     DPTR
        MOVX    A,@DPTR
??GenericApp_MessageMSGCB_0:
        JNZ     ??GenericApp_MessageMSGCB_1
//  111 		{
//  112 			case GENERICAPP_CLUSTERID:
//  113 				osal_memcpy(&tempreture,pkt->cmd.Data,sizeof(tempreture));
        ; Setup parameters for call to function osal_memcpy
        MOV     A,R2
        ADD     A,#0x21
        MOV     DPL,A
        MOV     A,R3
        ADDC    A,#0x0
        MOV     DPH,A
        MOVX    A,@DPTR
        MOV     ?V0 + 0,A
        INC     DPTR
        MOVX    A,@DPTR
        MOV     ?V0 + 1,A
        MOV     ?V0 + 2,#0x0
        MOV     R0,#?V0 + 0
        LCALL   ?PUSH_XSTACK_I_THREE
        CFI CFA_XSP16 add(XSP16, 20)
        MOV     R4,#0x4
        MOV     R5,#0x0
        MOV     A,#0x5
        LCALL   ?XSTACK_DISP0_8
        MOV     R2,DPL
        MOV     R3,DPH
        LCALL   ??osal_memcpy?relay
        MOV     A,#0x3
        LCALL   ?DEALLOC_XSTACK8
        CFI CFA_XSP16 add(XSP16, 17)
//  114 				HalUARTWrite(0,(uint8*)&tempreture,sizeof(tempreture));
        ; Setup parameters for call to function HalUARTWrite
        MOV     R4,#0x4
        MOV     R5,#0x0
        MOV     A,#0x2
        LCALL   ?XSTACK_DISP0_8
        MOV     R2,DPL
        MOV     R3,DPH
        MOV     R1,#0x0
        LCALL   ??HalUARTWrite?relay
//  115 				HalUARTWrite(0,buffer,2);
        ; Setup parameters for call to function HalUARTWrite
        MOV     R4,#0x2
        MOV     R5,#0x0
        MOV     DPL,?XSP + 0
        MOV     DPH,?XSP + 1
        MOV     R2,DPL
        MOV     R3,DPH
        MOV     R1,#0x0
        LCALL   ??HalUARTWrite?relay
//  116 				break;
//  117 		}
//  118 }
??GenericApp_MessageMSGCB_1:
        MOV     A,#0x6
        LJMP    ?Subroutine0 & 0xFFFF
        CFI EndBlock cfiBlock4

        RSEG BANK_RELAYS:CODE:REORDER:NOROOT(0)
??rxCB?relay:
        LCALL   ?BDISPATCH
        DATA
        DC24    rxCB

        RSEG BANK_RELAYS:CODE:REORDER:NOROOT(0)
??GenericApp_Init?relay:
        LCALL   ?BDISPATCH
        DATA
        DC24    GenericApp_Init

        RSEG BANK_RELAYS:CODE:REORDER:NOROOT(0)
??GenericApp_ProcessEvent?relay:
        LCALL   ?BDISPATCH
        DATA
        DC24    GenericApp_ProcessEvent

        RSEG BANK_RELAYS:CODE:REORDER:NOROOT(0)
??GenericApp_MessageMSGCB?relay:
        LCALL   ?BDISPATCH
        DATA
        DC24    GenericApp_MessageMSGCB

        RSEG XDATA_ROM_C:CONST:REORDER:NOROOT(0)
        DATA
`?<Constant "nvread">`:
        DB "nvread"

        RSEG XDATA_ROM_C:CONST:REORDER:NOROOT(0)
        DATA
`?<Constant {10, 13}>`:
        DB 10, 13

        END
// 
// 607 bytes in segment BANKED_CODE
//  24 bytes in segment BANK_RELAYS
//  23 bytes in segment XDATA_ROM_C
// 136 bytes in segment XDATA_Z
// 
// 631 bytes of CODE  memory
//  23 bytes of CONST memory
// 136 bytes of XDATA memory
//
//Errors: none
//Warnings: none
